Archive member included to satisfy reference by file (symbol)

/usr/local/mcuxpressoide-10.2.1_795/ide/tools/bin/../lib/gcc/arm-none-eabi/7.2.1/../../../../arm-none-eabi/lib/thumb/v7e-m/fpv4-sp/hard/libcr_semihost_nf.a(_cr__main.o)
                              ./startup/startup_mk22f51212.o (__main)
/usr/local/mcuxpressoide-10.2.1_795/ide/tools/bin/../lib/gcc/arm-none-eabi/7.2.1/../../../../arm-none-eabi/lib/thumb/v7e-m/fpv4-sp/hard/libcr_semihost_nf.a(_cr_assert.o)
                              ./utilities/fsl_debug_console.o (__assertion_failed)
/usr/local/mcuxpressoide-10.2.1_795/ide/tools/bin/../lib/gcc/arm-none-eabi/7.2.1/../../../../arm-none-eabi/lib/thumb/v7e-m/fpv4-sp/hard/libcr_semihost_nf.a(__ciob.o)
                              /usr/local/mcuxpressoide-10.2.1_795/ide/tools/bin/../lib/gcc/arm-none-eabi/7.2.1/../../../../arm-none-eabi/lib/thumb/v7e-m/fpv4-sp/hard/libcr_semihost_nf.a(_cr_assert.o) (__Ciob)
/usr/local/mcuxpressoide-10.2.1_795/ide/tools/bin/../lib/gcc/arm-none-eabi/7.2.1/../../../../arm-none-eabi/lib/thumb/v7e-m/fpv4-sp/hard/libcr_semihost_nf.a(__sys_appexit.o)
                              /usr/local/mcuxpressoide-10.2.1_795/ide/tools/bin/../lib/gcc/arm-none-eabi/7.2.1/../../../../arm-none-eabi/lib/thumb/v7e-m/fpv4-sp/hard/libcr_semihost_nf.a(_cr_assert.o) (__sys_appexit)
/usr/local/mcuxpressoide-10.2.1_795/ide/tools/bin/../lib/gcc/arm-none-eabi/7.2.1/../../../../arm-none-eabi/lib/thumb/v7e-m/fpv4-sp/hard/libcr_c.a(memcpy.o)
                              ./drivers/fsl_ftfx_cache.o (memcpy)
/usr/local/mcuxpressoide-10.2.1_795/ide/tools/bin/../lib/gcc/arm-none-eabi/7.2.1/../../../../arm-none-eabi/lib/thumb/v7e-m/fpv4-sp/hard/libcr_c.a(memset.o)
                              ./sources/audio_speaker.o (memset)
/usr/local/mcuxpressoide-10.2.1_795/ide/tools/bin/../lib/gcc/arm-none-eabi/7.2.1/../../../../arm-none-eabi/lib/thumb/v7e-m/fpv4-sp/hard/libcr_c.a(_deferredlazyseek.o)
                              /usr/local/mcuxpressoide-10.2.1_795/ide/tools/bin/../lib/gcc/arm-none-eabi/7.2.1/../../../../arm-none-eabi/lib/thumb/v7e-m/fpv4-sp/hard/libcr_semihost_nf.a(_cr_assert.o) (__flsbuf)
/usr/local/mcuxpressoide-10.2.1_795/ide/tools/bin/../lib/gcc/arm-none-eabi/7.2.1/../../../../arm-none-eabi/lib/thumb/v7e-m/fpv4-sp/hard/libcr_c.a(_fflush.o)
                              /usr/local/mcuxpressoide-10.2.1_795/ide/tools/bin/../lib/gcc/arm-none-eabi/7.2.1/../../../../arm-none-eabi/lib/thumb/v7e-m/fpv4-sp/hard/libcr_c.a(_deferredlazyseek.o) (_fflush)
/usr/local/mcuxpressoide-10.2.1_795/ide/tools/bin/../lib/gcc/arm-none-eabi/7.2.1/../../../../arm-none-eabi/lib/thumb/v7e-m/fpv4-sp/hard/libcr_c.a(_writebuf.o)
                              /usr/local/mcuxpressoide-10.2.1_795/ide/tools/bin/../lib/gcc/arm-none-eabi/7.2.1/../../../../arm-none-eabi/lib/thumb/v7e-m/fpv4-sp/hard/libcr_c.a(_deferredlazyseek.o) (_Cwritebuf)
/usr/local/mcuxpressoide-10.2.1_795/ide/tools/bin/../lib/gcc/arm-none-eabi/7.2.1/../../../../arm-none-eabi/lib/thumb/v7e-m/fpv4-sp/hard/libcr_c.a(alloc.o)
                              ./osa/usb_osa_bm.o (malloc)
/usr/local/mcuxpressoide-10.2.1_795/ide/tools/bin/../lib/gcc/arm-none-eabi/7.2.1/../../../../arm-none-eabi/lib/thumb/v7e-m/fpv4-sp/hard/libcr_c.a(fputs.o)
                              /usr/local/mcuxpressoide-10.2.1_795/ide/tools/bin/../lib/gcc/arm-none-eabi/7.2.1/../../../../arm-none-eabi/lib/thumb/v7e-m/fpv4-sp/hard/libcr_semihost_nf.a(_cr_assert.o) (fputs)
/usr/local/mcuxpressoide-10.2.1_795/ide/tools/bin/../lib/gcc/arm-none-eabi/7.2.1/../../../../arm-none-eabi/lib/thumb/v7e-m/fpv4-sp/hard/libcr_c.a(fseek.o)
                              /usr/local/mcuxpressoide-10.2.1_795/ide/tools/bin/../lib/gcc/arm-none-eabi/7.2.1/../../../../arm-none-eabi/lib/thumb/v7e-m/fpv4-sp/hard/libcr_c.a(_deferredlazyseek.o) (fseek)
/usr/local/mcuxpressoide-10.2.1_795/ide/tools/bin/../lib/gcc/arm-none-eabi/7.2.1/../../../../arm-none-eabi/lib/thumb/v7e-m/fpv4-sp/hard/libcr_c.a(ftell.o)
                              /usr/local/mcuxpressoide-10.2.1_795/ide/tools/bin/../lib/gcc/arm-none-eabi/7.2.1/../../../../arm-none-eabi/lib/thumb/v7e-m/fpv4-sp/hard/libcr_c.a(fseek.o) (ftell)
/usr/local/mcuxpressoide-10.2.1_795/ide/tools/bin/../lib/gcc/arm-none-eabi/7.2.1/../../../../arm-none-eabi/lib/thumb/v7e-m/fpv4-sp/hard/libcr_c.a(initio.o)
                              /usr/local/mcuxpressoide-10.2.1_795/ide/tools/bin/../lib/gcc/arm-none-eabi/7.2.1/../../../../arm-none-eabi/lib/thumb/v7e-m/fpv4-sp/hard/libcr_semihost_nf.a(_cr__main.o) (_initio)
/usr/local/mcuxpressoide-10.2.1_795/ide/tools/bin/../lib/gcc/arm-none-eabi/7.2.1/../../../../arm-none-eabi/lib/thumb/v7e-m/fpv4-sp/hard/libcr_c.a(printf.o)
                              ./utilities/fsl_assert.o (_printf)
/usr/local/mcuxpressoide-10.2.1_795/ide/tools/bin/../lib/gcc/arm-none-eabi/7.2.1/../../../../arm-none-eabi/lib/thumb/v7e-m/fpv4-sp/hard/libcr_c.a(setvbuf.o)
                              /usr/local/mcuxpressoide-10.2.1_795/ide/tools/bin/../lib/gcc/arm-none-eabi/7.2.1/../../../../arm-none-eabi/lib/thumb/v7e-m/fpv4-sp/hard/libcr_c.a(initio.o) (setvbuf)
/usr/local/mcuxpressoide-10.2.1_795/ide/tools/bin/../lib/gcc/arm-none-eabi/7.2.1/../../../../arm-none-eabi/lib/thumb/v7e-m/fpv4-sp/hard/libcr_c.a(strlen.o)
                              ./utilities/fsl_str.o (strlen)
/usr/local/mcuxpressoide-10.2.1_795/ide/tools/bin/../lib/gcc/arm-none-eabi/7.2.1/../../../../arm-none-eabi/lib/thumb/v7e-m/fpv4-sp/hard/libcr_c.a(__init_alloc.o)
                              /usr/local/mcuxpressoide-10.2.1_795/ide/tools/bin/../lib/gcc/arm-none-eabi/7.2.1/../../../../arm-none-eabi/lib/thumb/v7e-m/fpv4-sp/hard/libcr_c.a(alloc.o) (__heaps)
/usr/local/mcuxpressoide-10.2.1_795/ide/tools/bin/../lib/gcc/arm-none-eabi/7.2.1/../../../../arm-none-eabi/lib/thumb/v7e-m/fpv4-sp/hard/libcr_c.a(_cr_sbrk.o)
                              /usr/local/mcuxpressoide-10.2.1_795/ide/tools/bin/../lib/gcc/arm-none-eabi/7.2.1/../../../../arm-none-eabi/lib/thumb/v7e-m/fpv4-sp/hard/libcr_c.a(alloc.o) (_sbrk)
/usr/local/mcuxpressoide-10.2.1_795/ide/tools/bin/../lib/gcc/arm-none-eabi/7.2.1/../../../../arm-none-eabi/lib/thumb/v7e-m/fpv4-sp/hard/libcr_c.a(_fdopen.o)
                              /usr/local/mcuxpressoide-10.2.1_795/ide/tools/bin/../lib/gcc/arm-none-eabi/7.2.1/../../../../arm-none-eabi/lib/thumb/v7e-m/fpv4-sp/hard/libcr_c.a(initio.o) (_fdopen)
/usr/local/mcuxpressoide-10.2.1_795/ide/tools/bin/../lib/gcc/arm-none-eabi/7.2.1/../../../../arm-none-eabi/lib/thumb/v7e-m/fpv4-sp/hard/libcr_c.a(errno.o)
                              /usr/local/mcuxpressoide-10.2.1_795/ide/tools/bin/../lib/gcc/arm-none-eabi/7.2.1/../../../../arm-none-eabi/lib/thumb/v7e-m/fpv4-sp/hard/libcr_c.a(ftell.o) (errno)
/usr/local/mcuxpressoide-10.2.1_795/ide/tools/bin/../lib/gcc/arm-none-eabi/7.2.1/../../../../arm-none-eabi/lib/thumb/v7e-m/fpv4-sp/hard/libcr_c.a(fclose.o)
                              /usr/local/mcuxpressoide-10.2.1_795/ide/tools/bin/../lib/gcc/arm-none-eabi/7.2.1/../../../../arm-none-eabi/lib/thumb/v7e-m/fpv4-sp/hard/libcr_c.a(initio.o) (fclose)
/usr/local/mcuxpressoide-10.2.1_795/ide/tools/bin/../lib/gcc/arm-none-eabi/7.2.1/../../../../arm-none-eabi/lib/thumb/v7e-m/fpv4-sp/hard/libcr_c.a(fflush.o)
                              /usr/local/mcuxpressoide-10.2.1_795/ide/tools/bin/../lib/gcc/arm-none-eabi/7.2.1/../../../../arm-none-eabi/lib/thumb/v7e-m/fpv4-sp/hard/libcr_c.a(fclose.o) (fflush)
/usr/local/mcuxpressoide-10.2.1_795/ide/tools/bin/../lib/gcc/arm-none-eabi/7.2.1/../../../../arm-none-eabi/lib/thumb/v7e-m/fpv4-sp/hard/libcr_c.a(remove.o)
                              /usr/local/mcuxpressoide-10.2.1_795/ide/tools/bin/../lib/gcc/arm-none-eabi/7.2.1/../../../../arm-none-eabi/lib/thumb/v7e-m/fpv4-sp/hard/libcr_c.a(fclose.o) (remove)
/usr/local/mcuxpressoide-10.2.1_795/ide/tools/bin/../lib/gcc/arm-none-eabi/7.2.1/../../../../arm-none-eabi/lib/thumb/v7e-m/fpv4-sp/hard/libcr_c.a(_cr_check_heap.o)
                              /usr/local/mcuxpressoide-10.2.1_795/ide/tools/bin/../lib/gcc/arm-none-eabi/7.2.1/../../../../arm-none-eabi/lib/thumb/v7e-m/fpv4-sp/hard/libcr_c.a(_cr_sbrk.o) (__check_heap_overflow)
/usr/local/mcuxpressoide-10.2.1_795/ide/tools/bin/../lib/gcc/arm-none-eabi/7.2.1/../../../../arm-none-eabi/lib/thumb/v7e-m/fpv4-sp/hard/libcr_c.a(_do_fflush.o)
                              /usr/local/mcuxpressoide-10.2.1_795/ide/tools/bin/../lib/gcc/arm-none-eabi/7.2.1/../../../../arm-none-eabi/lib/thumb/v7e-m/fpv4-sp/hard/libcr_c.a(fflush.o) (_do_fflush)
/usr/local/mcuxpressoide-10.2.1_795/ide/tools/bin/../lib/gcc/arm-none-eabi/7.2.1/thumb/v7e-m/fpv4-sp/hard/libcr_eabihelpers.a(memcpy.o)
                              /usr/local/mcuxpressoide-10.2.1_795/ide/tools/bin/../lib/gcc/arm-none-eabi/7.2.1/../../../../arm-none-eabi/lib/thumb/v7e-m/fpv4-sp/hard/libcr_c.a(memcpy.o) (__aeabi_memcpy)
/usr/local/mcuxpressoide-10.2.1_795/ide/tools/bin/../lib/gcc/arm-none-eabi/7.2.1/../../../../arm-none-eabi/lib/thumb/v7e-m/fpv4-sp/hard/libcr_semihost_nf.a(__sys_close.o)
                              /usr/local/mcuxpressoide-10.2.1_795/ide/tools/bin/../lib/gcc/arm-none-eabi/7.2.1/../../../../arm-none-eabi/lib/thumb/v7e-m/fpv4-sp/hard/libcr_c.a(fclose.o) (__sys_close)
/usr/local/mcuxpressoide-10.2.1_795/ide/tools/bin/../lib/gcc/arm-none-eabi/7.2.1/../../../../arm-none-eabi/lib/thumb/v7e-m/fpv4-sp/hard/libcr_semihost_nf.a(__sys_flen.o)
                              /usr/local/mcuxpressoide-10.2.1_795/ide/tools/bin/../lib/gcc/arm-none-eabi/7.2.1/../../../../arm-none-eabi/lib/thumb/v7e-m/fpv4-sp/hard/libcr_c.a(_writebuf.o) (__sys_flen)
/usr/local/mcuxpressoide-10.2.1_795/ide/tools/bin/../lib/gcc/arm-none-eabi/7.2.1/../../../../arm-none-eabi/lib/thumb/v7e-m/fpv4-sp/hard/libcr_semihost_nf.a(__sys_istty.o)
                              /usr/local/mcuxpressoide-10.2.1_795/ide/tools/bin/../lib/gcc/arm-none-eabi/7.2.1/../../../../arm-none-eabi/lib/thumb/v7e-m/fpv4-sp/hard/libcr_c.a(_deferredlazyseek.o) (__sys_istty)
/usr/local/mcuxpressoide-10.2.1_795/ide/tools/bin/../lib/gcc/arm-none-eabi/7.2.1/../../../../arm-none-eabi/lib/thumb/v7e-m/fpv4-sp/hard/libcr_semihost_nf.a(__sys_remove.o)
                              /usr/local/mcuxpressoide-10.2.1_795/ide/tools/bin/../lib/gcc/arm-none-eabi/7.2.1/../../../../arm-none-eabi/lib/thumb/v7e-m/fpv4-sp/hard/libcr_c.a(remove.o) (__sys_remove)
/usr/local/mcuxpressoide-10.2.1_795/ide/tools/bin/../lib/gcc/arm-none-eabi/7.2.1/../../../../arm-none-eabi/lib/thumb/v7e-m/fpv4-sp/hard/libcr_semihost_nf.a(__sys_rename.o)
                              /usr/local/mcuxpressoide-10.2.1_795/ide/tools/bin/../lib/gcc/arm-none-eabi/7.2.1/../../../../arm-none-eabi/lib/thumb/v7e-m/fpv4-sp/hard/libcr_c.a(remove.o) (__sys_rename)
/usr/local/mcuxpressoide-10.2.1_795/ide/tools/bin/../lib/gcc/arm-none-eabi/7.2.1/../../../../arm-none-eabi/lib/thumb/v7e-m/fpv4-sp/hard/libcr_semihost_nf.a(__sys_seek.o)
                              /usr/local/mcuxpressoide-10.2.1_795/ide/tools/bin/../lib/gcc/arm-none-eabi/7.2.1/../../../../arm-none-eabi/lib/thumb/v7e-m/fpv4-sp/hard/libcr_c.a(_writebuf.o) (__sys_seek)
/usr/local/mcuxpressoide-10.2.1_795/ide/tools/bin/../lib/gcc/arm-none-eabi/7.2.1/../../../../arm-none-eabi/lib/thumb/v7e-m/fpv4-sp/hard/libcr_semihost_nf.a(__sys_tmpnam.o)
                              /usr/local/mcuxpressoide-10.2.1_795/ide/tools/bin/../lib/gcc/arm-none-eabi/7.2.1/../../../../arm-none-eabi/lib/thumb/v7e-m/fpv4-sp/hard/libcr_c.a(fclose.o) (__sys_tmpnam)
/usr/local/mcuxpressoide-10.2.1_795/ide/tools/bin/../lib/gcc/arm-none-eabi/7.2.1/../../../../arm-none-eabi/lib/thumb/v7e-m/fpv4-sp/hard/libcr_semihost_nf.a(__sys_write.o)
                              /usr/local/mcuxpressoide-10.2.1_795/ide/tools/bin/../lib/gcc/arm-none-eabi/7.2.1/../../../../arm-none-eabi/lib/thumb/v7e-m/fpv4-sp/hard/libcr_c.a(_writebuf.o) (__sys_write)

Discarded input sections

 .text          0x0000000000000000        0x0 ./utilities/fsl_assert.o
 .data          0x0000000000000000        0x0 ./utilities/fsl_assert.o
 .bss           0x0000000000000000        0x0 ./utilities/fsl_assert.o
 .rodata        0x0000000000000000       0x3e ./utilities/fsl_assert.o
 .text.__assert_func
                0x0000000000000000       0x28 ./utilities/fsl_assert.o
 .debug_info    0x0000000000000000      0x248 ./utilities/fsl_assert.o
 .debug_abbrev  0x0000000000000000       0xd5 ./utilities/fsl_assert.o
 .debug_aranges
                0x0000000000000000       0x20 ./utilities/fsl_assert.o
 .debug_ranges  0x0000000000000000       0x10 ./utilities/fsl_assert.o
 .debug_line    0x0000000000000000      0x13f ./utilities/fsl_assert.o
 .debug_str     0x0000000000000000      0x308 ./utilities/fsl_assert.o
 .comment       0x0000000000000000       0x7f ./utilities/fsl_assert.o
 .debug_frame   0x0000000000000000       0x30 ./utilities/fsl_assert.o
 .ARM.attributes
                0x0000000000000000       0x39 ./utilities/fsl_assert.o
 .text          0x0000000000000000        0x0 ./utilities/fsl_debug_console.o
 .data          0x0000000000000000        0x0 ./utilities/fsl_debug_console.o
 .bss           0x0000000000000000        0x0 ./utilities/fsl_debug_console.o
 .text.DbgConsole_Deinit
                0x0000000000000000        0xe ./utilities/fsl_debug_console.o
 .text.DbgConsole_Flush
                0x0000000000000000        0xe ./utilities/fsl_debug_console.o
 .text          0x0000000000000000        0x0 ./utilities/fsl_io.o
 .data          0x0000000000000000        0x0 ./utilities/fsl_io.o
 .bss           0x0000000000000000        0x0 ./utilities/fsl_io.o
 .text.IO_Deinit
                0x0000000000000000       0x50 ./utilities/fsl_io.o
 .text.IO_WaitIdle
                0x0000000000000000       0x4c ./utilities/fsl_io.o
 .text.IO_Transfer
                0x0000000000000000       0x88 ./utilities/fsl_io.o
 .text          0x0000000000000000        0x0 ./utilities/fsl_log.o
 .data          0x0000000000000000        0x0 ./utilities/fsl_log.o
 .bss           0x0000000000000000        0x0 ./utilities/fsl_log.o
 .text.LOG_Deinit
                0x0000000000000000        0xc ./utilities/fsl_log.o
 .text.LOG_WaitIdle
                0x0000000000000000        0xe ./utilities/fsl_log.o
 .rodata        0x0000000000000000       0x80 ./utilities/fsl_log.o
 .text.LOG_Push
                0x0000000000000000       0x2c ./utilities/fsl_log.o
 .text.LOG_Pop  0x0000000000000000       0x42 ./utilities/fsl_log.o
 .text.LOG_ReadLine
                0x0000000000000000       0xa8 ./utilities/fsl_log.o
 .text.LOG_ReadCharacter
                0x0000000000000000       0x40 ./utilities/fsl_log.o
 .text.LOG_ReadOneCharacter
                0x0000000000000000       0x26 ./utilities/fsl_log.o
 .text          0x0000000000000000        0x0 ./utilities/fsl_str.o
 .data          0x0000000000000000        0x0 ./utilities/fsl_str.o
 .bss           0x0000000000000000        0x0 ./utilities/fsl_str.o
 .text.ScanIgnoreWhiteSpace
                0x0000000000000000       0x60 ./utilities/fsl_str.o
 .text.ConvertRadixNumToString
                0x0000000000000000      0x114 ./utilities/fsl_str.o
 .text.StrFormatPrintf
                0x0000000000000000      0x30c ./utilities/fsl_str.o
 .text.StrFormatScanf
                0x0000000000000000      0x5e8 ./utilities/fsl_str.o
 .debug_info    0x0000000000000000      0x530 ./utilities/fsl_str.o
 .debug_abbrev  0x0000000000000000      0x194 ./utilities/fsl_str.o
 .debug_aranges
                0x0000000000000000       0x38 ./utilities/fsl_str.o
 .debug_ranges  0x0000000000000000       0x28 ./utilities/fsl_str.o
 .debug_line    0x0000000000000000      0x42a ./utilities/fsl_str.o
 .debug_str     0x0000000000000000      0x431 ./utilities/fsl_str.o
 .comment       0x0000000000000000       0x7f ./utilities/fsl_str.o
 .debug_frame   0x0000000000000000       0xb4 ./utilities/fsl_str.o
 .ARM.attributes
                0x0000000000000000       0x39 ./utilities/fsl_str.o
 .text          0x0000000000000000        0x0 ./usb/device/source/khci/usb_device_khci.o
 .data          0x0000000000000000        0x0 ./usb/device/source/khci/usb_device_khci.o
 .bss           0x0000000000000000        0x0 ./usb/device/source/khci/usb_device_khci.o
 .text          0x0000000000000000        0x0 ./usb/device/source/usb_device_ch9.o
 .data          0x0000000000000000        0x0 ./usb/device/source/usb_device_ch9.o
 .bss           0x0000000000000000        0x0 ./usb/device/source/usb_device_ch9.o
 .text          0x0000000000000000        0x0 ./usb/device/source/usb_device_dci.o
 .data          0x0000000000000000        0x0 ./usb/device/source/usb_device_dci.o
 .bss           0x0000000000000000        0x0 ./usb/device/source/usb_device_dci.o
 .text.USB_DeviceStop
                0x0000000000000000       0x1c ./usb/device/source/usb_device_dci.o
 .text.USB_DeviceCancel
                0x0000000000000000       0x4a ./usb/device/source/usb_device_dci.o
 .text.USB_DeviceGetVersion
                0x0000000000000000       0x24 ./usb/device/source/usb_device_dci.o
 .text          0x0000000000000000        0x0 ./usb/device/class/audio/usb_device_audio.o
 .data          0x0000000000000000        0x0 ./usb/device/class/audio/usb_device_audio.o
 .bss           0x0000000000000000        0x0 ./usb/device/class/audio/usb_device_audio.o
 .text          0x0000000000000000        0x0 ./usb/device/class/usb_device_class.o
 .data          0x0000000000000000        0x0 ./usb/device/class/usb_device_class.o
 .bss           0x0000000000000000        0x0 ./usb/device/class/usb_device_class.o
 .text.USB_DeviceClassGetHandleByControllerId
                0x0000000000000000       0x78 ./usb/device/class/usb_device_class.o
 .text.USB_DeviceClassDeinit
                0x0000000000000000       0xc8 ./usb/device/class/usb_device_class.o
 .text.USB_DeviceClassGetSpeed
                0x0000000000000000       0x48 ./usb/device/class/usb_device_class.o
 .text          0x0000000000000000        0x0 ./startup/startup_mk22f51212.o
 .data          0x0000000000000000        0x0 ./startup/startup_mk22f51212.o
 .bss           0x0000000000000000        0x0 ./startup/startup_mk22f51212.o
 .text.I2S0_Tx_IRQHandler
                0x0000000000000000        0x8 ./startup/startup_mk22f51212.o
 .text.USB0_IRQHandler
                0x0000000000000000        0x8 ./startup/startup_mk22f51212.o
 .text          0x0000000000000000        0x0 ./sources/audio_speaker.o
 .data          0x0000000000000000        0x0 ./sources/audio_speaker.o
 .bss           0x0000000000000000        0x0 ./sources/audio_speaker.o
 .text          0x0000000000000000        0x0 ./sources/usb_device_descriptor.o
 .data          0x0000000000000000        0x0 ./sources/usb_device_descriptor.o
 .bss           0x0000000000000000        0x0 ./sources/usb_device_descriptor.o
 .text.USB_DeviceSetSpeed
                0x0000000000000000      0x110 ./sources/usb_device_descriptor.o
 .text          0x0000000000000000        0x0 ./source/semihost_hardfault.o
 .data          0x0000000000000000        0x0 ./source/semihost_hardfault.o
 .bss           0x0000000000000000        0x0 ./source/semihost_hardfault.o
 .text          0x0000000000000000        0x0 ./osa/usb_osa_bm.o
 .data          0x0000000000000000        0x0 ./osa/usb_osa_bm.o
 .bss           0x0000000000000000        0x0 ./osa/usb_osa_bm.o
 .bss.m_usb_global
                0x0000000000000000       0xd0 ./osa/usb_osa_bm.o
 .text.USB_OsaMemoryAllocate
                0x0000000000000000       0x42 ./osa/usb_osa_bm.o
 .text.USB_OsaMemoryFree
                0x0000000000000000       0x16 ./osa/usb_osa_bm.o
 .text.USB_OsaEventCreate
                0x0000000000000000       0x9c ./osa/usb_osa_bm.o
 .text.USB_OsaEventDestroy
                0x0000000000000000       0x38 ./osa/usb_osa_bm.o
 .text.USB_OsaEventSet
                0x0000000000000000       0x40 ./osa/usb_osa_bm.o
 .text.USB_OsaEventWait
                0x0000000000000000       0x90 ./osa/usb_osa_bm.o
 .text.USB_OsaEventCheck
                0x0000000000000000       0x5e ./osa/usb_osa_bm.o
 .text.USB_OsaEventClear
                0x0000000000000000       0x4c ./osa/usb_osa_bm.o
 .text.USB_OsaSemCreate
                0x0000000000000000       0x88 ./osa/usb_osa_bm.o
 .text.USB_OsaSemDestroy
                0x0000000000000000       0x38 ./osa/usb_osa_bm.o
 .text.USB_OsaSemPost
                0x0000000000000000       0x3c ./osa/usb_osa_bm.o
 .text.USB_OsaSemWait
                0x0000000000000000       0x52 ./osa/usb_osa_bm.o
 .text.USB_OsaMutexCreate
                0x0000000000000000       0x2c ./osa/usb_osa_bm.o
 .text.USB_OsaMutexDestroy
                0x0000000000000000       0x16 ./osa/usb_osa_bm.o
 .text.USB_OsaMutexLock
                0x0000000000000000       0x16 ./osa/usb_osa_bm.o
 .text.USB_OsaMutexUnlock
                0x0000000000000000       0x16 ./osa/usb_osa_bm.o
 .text.USB_OsaMsgqCreate
                0x0000000000000000       0xc4 ./osa/usb_osa_bm.o
 .text.USB_OsaMsgqDestroy
                0x0000000000000000       0x3a ./osa/usb_osa_bm.o
 .text.USB_OsaMsgqSend
                0x0000000000000000       0xe0 ./osa/usb_osa_bm.o
 .text.USB_OsaMsgqRecv
                0x0000000000000000       0xc6 ./osa/usb_osa_bm.o
 .text.USB_OsaMsgqCheck
                0x0000000000000000       0x56 ./osa/usb_osa_bm.o
 .text          0x0000000000000000        0x0 ./drivers/fsl_clock.o
 .data          0x0000000000000000        0x0 ./drivers/fsl_clock.o
 .bss           0x0000000000000000        0x0 ./drivers/fsl_clock.o
 .text.CLOCK_FllStableDelay
                0x0000000000000000       0x26 ./drivers/fsl_clock.o
 .text.CLOCK_GetOsc0ErClkFreq
                0x0000000000000000        0xe ./drivers/fsl_clock.o
 .text.CLOCK_GetPlatClkFreq
                0x0000000000000000       0x28 ./drivers/fsl_clock.o
 .text.CLOCK_GetFlashClkFreq
                0x0000000000000000       0x28 ./drivers/fsl_clock.o
 .text.CLOCK_GetFlexBusClkFreq
                0x0000000000000000       0x28 ./drivers/fsl_clock.o
 .text.CLOCK_GetBusClkFreq
                0x0000000000000000       0x28 ./drivers/fsl_clock.o
 .text.CLOCK_CalcPllDiv
                0x0000000000000000      0x16c ./drivers/fsl_clock.o
 .text.CLOCK_SetOsc0MonitorMode
                0x0000000000000000       0x7c ./drivers/fsl_clock.o
 .text.CLOCK_SetRtcOscMonitorMode
                0x0000000000000000       0x4c ./drivers/fsl_clock.o
 .text.CLOCK_SetPll0MonitorMode
                0x0000000000000000       0x74 ./drivers/fsl_clock.o
 .text.CLOCK_GetStatusFlags
                0x0000000000000000       0x84 ./drivers/fsl_clock.o
 .text.CLOCK_ClearStatusFlags
                0x0000000000000000       0x58 ./drivers/fsl_clock.o
 .text.CLOCK_DeinitOsc0
                0x0000000000000000       0x2c ./drivers/fsl_clock.o
 .text.CLOCK_TrimInternalRefClk
                0x0000000000000000      0x138 ./drivers/fsl_clock.o
 .text.CLOCK_GetMode
                0x0000000000000000       0xbc ./drivers/fsl_clock.o
 .text.CLOCK_SetFeiMode
                0x0000000000000000       0xc0 ./drivers/fsl_clock.o
 .text.CLOCK_SetFeeMode
                0x0000000000000000      0x10c ./drivers/fsl_clock.o
 .text.CLOCK_SetFbiMode
                0x0000000000000000       0xd0 ./drivers/fsl_clock.o
 .text.CLOCK_SetFbeMode
                0x0000000000000000      0x12c ./drivers/fsl_clock.o
 .text.CLOCK_SetBlpiMode
                0x0000000000000000       0x24 ./drivers/fsl_clock.o
 .text.CLOCK_SetBlpeMode
                0x0000000000000000       0x24 ./drivers/fsl_clock.o
 .text.CLOCK_SetPeeMode
                0x0000000000000000       0x38 ./drivers/fsl_clock.o
 .text.CLOCK_ExternalModeToFbeModeQuick
                0x0000000000000000       0x6c ./drivers/fsl_clock.o
 .text.CLOCK_InternalModeToFbiModeQuick
                0x0000000000000000       0x4c ./drivers/fsl_clock.o
 .text.CLOCK_BootToFeiMode
                0x0000000000000000       0x26 ./drivers/fsl_clock.o
 .text.CLOCK_BootToFeeMode
                0x0000000000000000       0x3c ./drivers/fsl_clock.o
 .text.CLOCK_BootToBlpiMode
                0x0000000000000000       0x64 ./drivers/fsl_clock.o
 .text.CLOCK_BootToBlpeMode
                0x0000000000000000       0x84 ./drivers/fsl_clock.o
 .rodata.mcgModeMatrix
                0x0000000000000000       0x40 ./drivers/fsl_clock.o
 .text.CLOCK_SetMcgConfig
                0x0000000000000000      0x1e8 ./drivers/fsl_clock.o
 .rodata.trimRange.7592
                0x0000000000000000       0x10 ./drivers/fsl_clock.o
 .text          0x0000000000000000        0x0 ./drivers/fsl_common.o
 .data          0x0000000000000000        0x0 ./drivers/fsl_common.o
 .bss           0x0000000000000000        0x0 ./drivers/fsl_common.o
 .text.SDK_Malloc
                0x0000000000000000       0x6a ./drivers/fsl_common.o
 .text.SDK_Free
                0x0000000000000000       0x32 ./drivers/fsl_common.o
 .debug_info    0x0000000000000000      0x1d3 ./drivers/fsl_common.o
 .debug_abbrev  0x0000000000000000      0x104 ./drivers/fsl_common.o
 .debug_aranges
                0x0000000000000000       0x28 ./drivers/fsl_common.o
 .debug_ranges  0x0000000000000000       0x18 ./drivers/fsl_common.o
 .debug_line    0x0000000000000000      0x142 ./drivers/fsl_common.o
 .debug_str     0x0000000000000000      0x2c2 ./drivers/fsl_common.o
 .comment       0x0000000000000000       0x7f ./drivers/fsl_common.o
 .debug_frame   0x0000000000000000       0x58 ./drivers/fsl_common.o
 .ARM.attributes
                0x0000000000000000       0x39 ./drivers/fsl_common.o
 .text          0x0000000000000000        0x0 ./drivers/fsl_dmamux.o
 .data          0x0000000000000000        0x0 ./drivers/fsl_dmamux.o
 .bss           0x0000000000000000        0x0 ./drivers/fsl_dmamux.o
 .text.CLOCK_DisableClock
                0x0000000000000000       0x38 ./drivers/fsl_dmamux.o
 .rodata.s_dmamuxBases
                0x0000000000000000        0x4 ./drivers/fsl_dmamux.o
 .rodata.s_dmamuxClockName
                0x0000000000000000        0x4 ./drivers/fsl_dmamux.o
 .text.DMAMUX_Deinit
                0x0000000000000000       0x24 ./drivers/fsl_dmamux.o
 .text          0x0000000000000000        0x0 ./drivers/fsl_edma.o
 .data          0x0000000000000000        0x0 ./drivers/fsl_edma.o
 .bss           0x0000000000000000        0x0 ./drivers/fsl_edma.o
 .text.CLOCK_DisableClock
                0x0000000000000000       0x38 ./drivers/fsl_edma.o
 .rodata.s_edmaBases
                0x0000000000000000        0x4 ./drivers/fsl_edma.o
 .rodata.s_edmaClockName
                0x0000000000000000        0x4 ./drivers/fsl_edma.o
 .text.EDMA_Deinit
                0x0000000000000000       0x24 ./drivers/fsl_edma.o
 .text.EDMA_ResetChannel
                0x0000000000000000       0x34 ./drivers/fsl_edma.o
 .text.EDMA_SetMinorOffsetConfig
                0x0000000000000000       0x88 ./drivers/fsl_edma.o
 .text.EDMA_SetChannelLink
                0x0000000000000000       0x4c ./drivers/fsl_edma.o
 .text.EDMA_SetBandWidth
                0x0000000000000000       0x5c ./drivers/fsl_edma.o
 .text.EDMA_SetModulo
                0x0000000000000000       0x78 ./drivers/fsl_edma.o
 .text.EDMA_EnableChannelInterrupts
                0x0000000000000000       0xa8 ./drivers/fsl_edma.o
 .text.EDMA_DisableChannelInterrupts
                0x0000000000000000       0xac ./drivers/fsl_edma.o
 .text.EDMA_TcdSetMinorOffsetConfig
                0x0000000000000000       0x70 ./drivers/fsl_edma.o
 .text.EDMA_TcdSetChannelLink
                0x0000000000000000      0x134 ./drivers/fsl_edma.o
 .text.EDMA_TcdSetModulo
                0x0000000000000000       0x70 ./drivers/fsl_edma.o
 .text.EDMA_TcdEnableInterrupts
                0x0000000000000000       0x58 ./drivers/fsl_edma.o
 .text.EDMA_TcdDisableInterrupts
                0x0000000000000000       0x58 ./drivers/fsl_edma.o
 .text.EDMA_GetRemainingMajorLoopCount
                0x0000000000000000       0x94 ./drivers/fsl_edma.o
 .text.EDMA_GetChannelStatusFlags
                0x0000000000000000       0x74 ./drivers/fsl_edma.o
 .text.EDMA_ClearChannelStatusFlags
                0x0000000000000000       0x5c ./drivers/fsl_edma.o
 .text.EDMA_StopTransfer
                0x0000000000000000       0x40 ./drivers/fsl_edma.o
 .text.DMA0_08_DriverIRQHandler
                0x0000000000000000       0x4c ./drivers/fsl_edma.o
 .text.DMA0_19_DriverIRQHandler
                0x0000000000000000       0x4c ./drivers/fsl_edma.o
 .text.DMA0_210_DriverIRQHandler
                0x0000000000000000       0x4c ./drivers/fsl_edma.o
 .text.DMA0_311_DriverIRQHandler
                0x0000000000000000       0x4c ./drivers/fsl_edma.o
 .text.DMA0_412_DriverIRQHandler
                0x0000000000000000       0x4c ./drivers/fsl_edma.o
 .text.DMA0_513_DriverIRQHandler
                0x0000000000000000       0x4c ./drivers/fsl_edma.o
 .text.DMA0_614_DriverIRQHandler
                0x0000000000000000       0x4c ./drivers/fsl_edma.o
 .text.DMA0_715_DriverIRQHandler
                0x0000000000000000       0x4c ./drivers/fsl_edma.o
 .text          0x0000000000000000        0x0 ./drivers/fsl_ftfx_cache.o
 .data          0x0000000000000000        0x0 ./drivers/fsl_ftfx_cache.o
 .bss           0x0000000000000000        0x0 ./drivers/fsl_ftfx_cache.o
 .rodata.s_ftfxCommonBitOperationFunctionCode
                0x0000000000000000       0x1c ./drivers/fsl_ftfx_cache.o
 .bss.s_ftfxCommonBitOperation
                0x0000000000000000       0x40 ./drivers/fsl_ftfx_cache.o
 .text.FTFx_CACHE_Init
                0x0000000000000000       0x38 ./drivers/fsl_ftfx_cache.o
 .text.FTFx_CACHE_ClearCachePrefetchSpeculation
                0x0000000000000000       0x2e ./drivers/fsl_ftfx_cache.o
 .text.FTFx_CACHE_PflashSetPrefetchSpeculation
                0x0000000000000000       0x78 ./drivers/fsl_ftfx_cache.o
 .text.FTFx_CACHE_PflashGetPrefetchSpeculation
                0x0000000000000000       0x54 ./drivers/fsl_ftfx_cache.o
 .text.ftfx_copy_common_bit_operation_to_ram
                0x0000000000000000       0x20 ./drivers/fsl_ftfx_cache.o
 .text.fmc_flash_cache_clear
                0x0000000000000000       0x2c ./drivers/fsl_ftfx_cache.o
 .text.fmc_flash_prefetch_speculation_clear
                0x0000000000000000       0x2c ./drivers/fsl_ftfx_cache.o
 .debug_info    0x0000000000000000      0x6e2 ./drivers/fsl_ftfx_cache.o
 .debug_abbrev  0x0000000000000000      0x211 ./drivers/fsl_ftfx_cache.o
 .debug_aranges
                0x0000000000000000       0x50 ./drivers/fsl_ftfx_cache.o
 .debug_ranges  0x0000000000000000       0x40 ./drivers/fsl_ftfx_cache.o
 .debug_line    0x0000000000000000      0x206 ./drivers/fsl_ftfx_cache.o
 .debug_str     0x0000000000000000      0xda3 ./drivers/fsl_ftfx_cache.o
 .comment       0x0000000000000000       0x7f ./drivers/fsl_ftfx_cache.o
 .debug_frame   0x0000000000000000      0x118 ./drivers/fsl_ftfx_cache.o
 .ARM.attributes
                0x0000000000000000       0x39 ./drivers/fsl_ftfx_cache.o
 .text          0x0000000000000000        0x0 ./drivers/fsl_ftfx_controller.o
 .data          0x0000000000000000        0x0 ./drivers/fsl_ftfx_controller.o
 .bss           0x0000000000000000        0x0 ./drivers/fsl_ftfx_controller.o
 .rodata.s_ftfxRunCommandFunctionCode
                0x0000000000000000        0xc ./drivers/fsl_ftfx_controller.o
 .bss.s_ftfxRunCommand
                0x0000000000000000       0x40 ./drivers/fsl_ftfx_controller.o
 .rodata.kFCCOBx
                0x0000000000000000        0x4 ./drivers/fsl_ftfx_controller.o
 .text.FTFx_API_Init
                0x0000000000000000       0x4c ./drivers/fsl_ftfx_controller.o
 .text.FTFx_CMD_Erase
                0x0000000000000000       0xc0 ./drivers/fsl_ftfx_controller.o
 .text.FTFx_CMD_EraseAll
                0x0000000000000000       0x44 ./drivers/fsl_ftfx_controller.o
 .text.FTFx_CMD_EraseAllExecuteOnlySegments
                0x0000000000000000       0x44 ./drivers/fsl_ftfx_controller.o
 .text.FTFx_CMD_Program
                0x0000000000000000       0xcc ./drivers/fsl_ftfx_controller.o
 .text.FTFx_CMD_ProgramOnce
                0x0000000000000000       0xd4 ./drivers/fsl_ftfx_controller.o
 .text.FTFx_CMD_ReadOnce
                0x0000000000000000       0xd4 ./drivers/fsl_ftfx_controller.o
 .text.FTFx_CMD_ReadResource
                0x0000000000000000       0xe8 ./drivers/fsl_ftfx_controller.o
 .text.FTFx_CMD_VerifyErase
                0x0000000000000000       0xec ./drivers/fsl_ftfx_controller.o
 .text.FTFx_CMD_VerifyEraseAll
                0x0000000000000000       0x3c ./drivers/fsl_ftfx_controller.o
 .text.FTFx_CMD_VerifyEraseAllExecuteOnlySegments
                0x0000000000000000       0x3c ./drivers/fsl_ftfx_controller.o
 .text.FTFx_CMD_VerifyProgram
                0x0000000000000000       0xc8 ./drivers/fsl_ftfx_controller.o
 .text.FTFx_CMD_SecurityBypass
                0x0000000000000000       0xa8 ./drivers/fsl_ftfx_controller.o
 .text.FTFx_REG_GetSecurityState
                0x0000000000000000       0x68 ./drivers/fsl_ftfx_controller.o
 .text.ftfx_init_ifr
                0x0000000000000000       0x6c ./drivers/fsl_ftfx_controller.o
 .text.ftfx_copy_run_command_to_ram
                0x0000000000000000       0x20 ./drivers/fsl_ftfx_controller.o
 .text.ftfx_command_sequence
                0x0000000000000000       0x5c ./drivers/fsl_ftfx_controller.o
 .text.ftfx_check_mem_range
                0x0000000000000000       0x68 ./drivers/fsl_ftfx_controller.o
 .text.ftfx_check_user_key
                0x0000000000000000       0x28 ./drivers/fsl_ftfx_controller.o
 .text.ftfx_read_word_from_byte_address
                0x0000000000000000       0x58 ./drivers/fsl_ftfx_controller.o
 .text.ftfx_write_word_to_byte_address
                0x0000000000000000       0x50 ./drivers/fsl_ftfx_controller.o
 .text.ftfx_check_resource_range
                0x0000000000000000       0x9e ./drivers/fsl_ftfx_controller.o
 .debug_info    0x0000000000000000     0x1241 ./drivers/fsl_ftfx_controller.o
 .debug_abbrev  0x0000000000000000      0x269 ./drivers/fsl_ftfx_controller.o
 .debug_aranges
                0x0000000000000000       0xc8 ./drivers/fsl_ftfx_controller.o
 .debug_ranges  0x0000000000000000       0xb8 ./drivers/fsl_ftfx_controller.o
 .debug_line    0x0000000000000000      0x487 ./drivers/fsl_ftfx_controller.o
 .debug_str     0x0000000000000000     0x149c ./drivers/fsl_ftfx_controller.o
 .comment       0x0000000000000000       0x7f ./drivers/fsl_ftfx_controller.o
 .debug_frame   0x0000000000000000      0x354 ./drivers/fsl_ftfx_controller.o
 .ARM.attributes
                0x0000000000000000       0x39 ./drivers/fsl_ftfx_controller.o
 .text          0x0000000000000000        0x0 ./drivers/fsl_ftfx_flash.o
 .data          0x0000000000000000        0x0 ./drivers/fsl_ftfx_flash.o
 .bss           0x0000000000000000        0x0 ./drivers/fsl_ftfx_flash.o
 .rodata.kFPROTL
                0x0000000000000000        0x4 ./drivers/fsl_ftfx_flash.o
 .rodata.kFPROTH
                0x0000000000000000        0x4 ./drivers/fsl_ftfx_flash.o
 .rodata.kPFlashDensities
                0x0000000000000000       0x1e ./drivers/fsl_ftfx_flash.o
 .text.FLASH_Init
                0x0000000000000000      0x3a4 ./drivers/fsl_ftfx_flash.o
 .text.FLASH_Erase
                0x0000000000000000       0x6c ./drivers/fsl_ftfx_flash.o
 .text.FLASH_EraseAll
                0x0000000000000000       0x1e ./drivers/fsl_ftfx_flash.o
 .text.FLASH_Program
                0x0000000000000000       0x6c ./drivers/fsl_ftfx_flash.o
 .text.FLASH_ReadResource
                0x0000000000000000       0x28 ./drivers/fsl_ftfx_flash.o
 .text.FLASH_VerifyErase
                0x0000000000000000       0x6c ./drivers/fsl_ftfx_flash.o
 .text.FLASH_VerifyEraseAll
                0x0000000000000000       0x22 ./drivers/fsl_ftfx_flash.o
 .text.FLASH_VerifyProgram
                0x0000000000000000       0x7a ./drivers/fsl_ftfx_flash.o
 .text.FLASH_GetSecurityState
                0x0000000000000000       0x1e ./drivers/fsl_ftfx_flash.o
 .text.FLASH_SecurityBypass
                0x0000000000000000       0x1e ./drivers/fsl_ftfx_flash.o
 .text.FLASH_IsProtected
                0x0000000000000000      0x318 ./drivers/fsl_ftfx_flash.o
 .text.FLASH_IsExecuteOnly
                0x0000000000000000      0x164 ./drivers/fsl_ftfx_flash.o
 .text.FLASH_PflashSetProtection
                0x0000000000000000       0x74 ./drivers/fsl_ftfx_flash.o
 .text.FLASH_PflashGetProtection
                0x0000000000000000       0x5c ./drivers/fsl_ftfx_flash.o
 .text.FLASH_GetProperty
                0x0000000000000000      0x13c ./drivers/fsl_ftfx_flash.o
 .text.flash_init_features
                0x0000000000000000       0x58 ./drivers/fsl_ftfx_flash.o
 .text.flash_calculate_mem_size
                0x0000000000000000       0x58 ./drivers/fsl_ftfx_flash.o
 .text.flash_calculate_prot_segment_size
                0x0000000000000000       0x34 ./drivers/fsl_ftfx_flash.o
 .text.flash_check_range_to_get_index
                0x0000000000000000       0x90 ./drivers/fsl_ftfx_flash.o
 .text.flash_convert_start_address
                0x0000000000000000       0x50 ./drivers/fsl_ftfx_flash.o
 .debug_info    0x0000000000000000     0x16be ./drivers/fsl_ftfx_flash.o
 .debug_abbrev  0x0000000000000000      0x285 ./drivers/fsl_ftfx_flash.o
 .debug_aranges
                0x0000000000000000       0xb8 ./drivers/fsl_ftfx_flash.o
 .debug_ranges  0x0000000000000000       0xc0 ./drivers/fsl_ftfx_flash.o
 .debug_line    0x0000000000000000      0x48a ./drivers/fsl_ftfx_flash.o
 .debug_str     0x0000000000000000     0x1a46 ./drivers/fsl_ftfx_flash.o
 .comment       0x0000000000000000       0x7f ./drivers/fsl_ftfx_flash.o
 .debug_frame   0x0000000000000000      0x30c ./drivers/fsl_ftfx_flash.o
 .ARM.attributes
                0x0000000000000000       0x39 ./drivers/fsl_ftfx_flash.o
 .text          0x0000000000000000        0x0 ./drivers/fsl_ftfx_flexnvm.o
 .data          0x0000000000000000        0x0 ./drivers/fsl_ftfx_flexnvm.o
 .bss           0x0000000000000000        0x0 ./drivers/fsl_ftfx_flexnvm.o
 .debug_info    0x0000000000000000       0xe1 ./drivers/fsl_ftfx_flexnvm.o
 .debug_abbrev  0x0000000000000000       0x7a ./drivers/fsl_ftfx_flexnvm.o
 .debug_aranges
                0x0000000000000000       0x18 ./drivers/fsl_ftfx_flexnvm.o
 .debug_line    0x0000000000000000      0x102 ./drivers/fsl_ftfx_flexnvm.o
 .debug_str     0x0000000000000000      0x235 ./drivers/fsl_ftfx_flexnvm.o
 .comment       0x0000000000000000       0x7f ./drivers/fsl_ftfx_flexnvm.o
 .ARM.attributes
                0x0000000000000000       0x39 ./drivers/fsl_ftfx_flexnvm.o
 .text          0x0000000000000000        0x0 ./drivers/fsl_gpio.o
 .data          0x0000000000000000        0x0 ./drivers/fsl_gpio.o
 .bss           0x0000000000000000        0x0 ./drivers/fsl_gpio.o
 .rodata.s_portBases
                0x0000000000000000       0x14 ./drivers/fsl_gpio.o
 .rodata.s_gpioBases
                0x0000000000000000       0x14 ./drivers/fsl_gpio.o
 .text.GPIO_GetInstance
                0x0000000000000000       0x4c ./drivers/fsl_gpio.o
 .text.GPIO_PortGetInterruptFlags
                0x0000000000000000       0x30 ./drivers/fsl_gpio.o
 .text.GPIO_PortClearInterruptFlags
                0x0000000000000000       0x34 ./drivers/fsl_gpio.o
 .text          0x0000000000000000        0x0 ./drivers/fsl_i2c.o
 .data          0x0000000000000000        0x0 ./drivers/fsl_i2c.o
 .bss           0x0000000000000000        0x0 ./drivers/fsl_i2c.o
 .text.__NVIC_EnableIRQ
                0x0000000000000000       0x3c ./drivers/fsl_i2c.o
 .text.CLOCK_DisableClock
                0x0000000000000000       0x38 ./drivers/fsl_i2c.o
 .text.EnableIRQ
                0x0000000000000000       0x2c ./drivers/fsl_i2c.o
 .text.I2C_Enable
                0x0000000000000000       0x40 ./drivers/fsl_i2c.o
 .text.I2C_SlaveGetStatusFlags
                0x0000000000000000       0x18 ./drivers/fsl_i2c.o
 .text.I2C_SlaveClearStatusFlags
                0x0000000000000000       0x1a ./drivers/fsl_i2c.o
 .rodata.s_i2cIrqs
                0x0000000000000000        0x2 ./drivers/fsl_i2c.o
 .text.I2C_SetHoldTime
                0x0000000000000000       0xf4 ./drivers/fsl_i2c.o
 .text.I2C_InitTransferStateMachine
                0x0000000000000000       0xd4 ./drivers/fsl_i2c.o
 .text.I2C_MasterTransferRunStateMachine
                0x0000000000000000      0x250 ./drivers/fsl_i2c.o
 .text.I2C_MasterDeinit
                0x0000000000000000       0x30 ./drivers/fsl_i2c.o
 .text.I2C_EnableInterrupts
                0x0000000000000000       0x56 ./drivers/fsl_i2c.o
 .text.I2C_DisableInterrupts
                0x0000000000000000       0x4a ./drivers/fsl_i2c.o
 .text.I2C_MasterTransferCreateHandle
                0x0000000000000000       0x74 ./drivers/fsl_i2c.o
 .text.I2C_MasterTransferNonBlocking
                0x0000000000000000       0x64 ./drivers/fsl_i2c.o
 .text.I2C_MasterTransferAbort
                0x0000000000000000       0xc4 ./drivers/fsl_i2c.o
 .text.I2C_MasterTransferGetCount
                0x0000000000000000       0x40 ./drivers/fsl_i2c.o
 .text.I2C_MasterTransferHandleIRQ
                0x0000000000000000       0xb4 ./drivers/fsl_i2c.o
 .text.I2C_SlaveInit
                0x0000000000000000      0x13c ./drivers/fsl_i2c.o
 .text.I2C_SlaveDeinit
                0x0000000000000000       0x30 ./drivers/fsl_i2c.o
 .text.I2C_SlaveGetDefaultConfig
                0x0000000000000000       0x48 ./drivers/fsl_i2c.o
 .text.I2C_SlaveWriteBlocking
                0x0000000000000000       0x8c ./drivers/fsl_i2c.o
 .text.I2C_SlaveReadBlocking
                0x0000000000000000       0xc0 ./drivers/fsl_i2c.o
 .text.I2C_SlaveTransferCreateHandle
                0x0000000000000000       0x74 ./drivers/fsl_i2c.o
 .text.I2C_SlaveTransferNonBlocking
                0x0000000000000000       0x70 ./drivers/fsl_i2c.o
 .text.I2C_SlaveTransferAbort
                0x0000000000000000       0x48 ./drivers/fsl_i2c.o
 .text.I2C_SlaveTransferGetCount
                0x0000000000000000       0x54 ./drivers/fsl_i2c.o
 .text.I2C_SlaveTransferHandleIRQ
                0x0000000000000000      0x300 ./drivers/fsl_i2c.o
 .text          0x0000000000000000        0x0 ./drivers/fsl_lpuart.o
 .data          0x0000000000000000        0x0 ./drivers/fsl_lpuart.o
 .bss           0x0000000000000000        0x0 ./drivers/fsl_lpuart.o
 .text.__NVIC_EnableIRQ
                0x0000000000000000       0x3c ./drivers/fsl_lpuart.o
 .text.CLOCK_DisableClock
                0x0000000000000000       0x38 ./drivers/fsl_lpuart.o
 .text.EnableIRQ
                0x0000000000000000       0x2c ./drivers/fsl_lpuart.o
 .rodata.s_lpuartBases
                0x0000000000000000        0x4 ./drivers/fsl_lpuart.o
 .rodata.s_lpuartIRQ
                0x0000000000000000        0x1 ./drivers/fsl_lpuart.o
 .rodata.s_lpuartClock
                0x0000000000000000        0x4 ./drivers/fsl_lpuart.o
 .text.LPUART_TransferGetRxRingBufferLength
                0x0000000000000000       0x60 ./drivers/fsl_lpuart.o
 .text.LPUART_TransferIsRxRingBufferFull
                0x0000000000000000       0x44 ./drivers/fsl_lpuart.o
 .text.LPUART_WriteNonBlocking
                0x0000000000000000       0x48 ./drivers/fsl_lpuart.o
 .text.LPUART_ReadNonBlocking
                0x0000000000000000       0x48 ./drivers/fsl_lpuart.o
 .text.LPUART_Deinit
                0x0000000000000000       0x5c ./drivers/fsl_lpuart.o
 .text.LPUART_SetBaudRate
                0x0000000000000000      0x148 ./drivers/fsl_lpuart.o
 .text.LPUART_EnableInterrupts
                0x0000000000000000       0x3c ./drivers/fsl_lpuart.o
 .text.LPUART_DisableInterrupts
                0x0000000000000000       0x40 ./drivers/fsl_lpuart.o
 .text.LPUART_GetEnabledInterrupts
                0x0000000000000000       0x34 ./drivers/fsl_lpuart.o
 .text.LPUART_GetStatusFlags
                0x0000000000000000       0x1c ./drivers/fsl_lpuart.o
 .text.LPUART_ClearStatusFlags
                0x0000000000000000       0x80 ./drivers/fsl_lpuart.o
 .text.LPUART_WriteBlocking
                0x0000000000000000       0x4c ./drivers/fsl_lpuart.o
 .text.LPUART_ReadBlocking
                0x0000000000000000       0xbc ./drivers/fsl_lpuart.o
 .text.LPUART_TransferCreateHandle
                0x0000000000000000       0x78 ./drivers/fsl_lpuart.o
 .text.LPUART_TransferStartRingBuffer
                0x0000000000000000       0x58 ./drivers/fsl_lpuart.o
 .text.LPUART_TransferStopRingBuffer
                0x0000000000000000       0x50 ./drivers/fsl_lpuart.o
 .text.LPUART_TransferSendNonBlocking
                0x0000000000000000       0x9c ./drivers/fsl_lpuart.o
 .text.LPUART_TransferAbortSend
                0x0000000000000000       0x3c ./drivers/fsl_lpuart.o
 .text.LPUART_TransferGetSendCount
                0x0000000000000000       0x54 ./drivers/fsl_lpuart.o
 .text.LPUART_TransferReceiveNonBlocking
                0x0000000000000000      0x198 ./drivers/fsl_lpuart.o
 .text.LPUART_TransferAbortReceive
                0x0000000000000000       0x44 ./drivers/fsl_lpuart.o
 .text.LPUART_TransferGetReceiveCount
                0x0000000000000000       0x54 ./drivers/fsl_lpuart.o
 .text.LPUART_TransferHandleIRQ
                0x0000000000000000      0x294 ./drivers/fsl_lpuart.o
 .text.LPUART_TransferHandleErrorIRQ
                0x0000000000000000       0x16 ./drivers/fsl_lpuart.o
 .text          0x0000000000000000        0x0 ./drivers/fsl_sai.o
 .data          0x0000000000000000        0x0 ./drivers/fsl_sai.o
 .bss           0x0000000000000000        0x0 ./drivers/fsl_sai.o
 .text.__NVIC_EnableIRQ
                0x0000000000000000       0x3c ./drivers/fsl_sai.o
 .text.CLOCK_DisableClock
                0x0000000000000000       0x38 ./drivers/fsl_sai.o
 .text.EnableIRQ
                0x0000000000000000       0x2c ./drivers/fsl_sai.o
 .text.SAI_RxClearStatusFlags
                0x0000000000000000       0x2a ./drivers/fsl_sai.o
 .text.SAI_RxSetFIFOErrorContinue
                0x0000000000000000       0x40 ./drivers/fsl_sai.o
 .text.SAI_TxEnableInterrupts
                0x0000000000000000       0x26 ./drivers/fsl_sai.o
 .text.SAI_RxEnableInterrupts
                0x0000000000000000       0x2a ./drivers/fsl_sai.o
 .text.SAI_TxDisableInterrupts
                0x0000000000000000       0x28 ./drivers/fsl_sai.o
 .text.SAI_RxDisableInterrupts
                0x0000000000000000       0x2c ./drivers/fsl_sai.o
 .rodata.s_saiBases
                0x0000000000000000        0x4 ./drivers/fsl_sai.o
 .rodata.s_saiTxIRQ
                0x0000000000000000        0x1 ./drivers/fsl_sai.o
 .rodata.s_saiRxIRQ
                0x0000000000000000        0x1 ./drivers/fsl_sai.o
 .rodata.s_saiClock
                0x0000000000000000        0x4 ./drivers/fsl_sai.o
 .bss.s_saiTxIsr
                0x0000000000000000        0x4 ./drivers/fsl_sai.o
 .text.SAI_WriteNonBlocking
                0x0000000000000000       0x96 ./drivers/fsl_sai.o
 .text.SAI_ReadNonBlocking
                0x0000000000000000       0x7c ./drivers/fsl_sai.o
 .text.SAI_RxInit
                0x0000000000000000      0x290 ./drivers/fsl_sai.o
 .text.SAI_Deinit
                0x0000000000000000       0x34 ./drivers/fsl_sai.o
 .text.SAI_RxGetDefaultConfig
                0x0000000000000000       0x38 ./drivers/fsl_sai.o
 .text.SAI_RxReset
                0x0000000000000000       0x56 ./drivers/fsl_sai.o
 .text.SAI_RxEnable
                0x0000000000000000       0x84 ./drivers/fsl_sai.o
 .text.SAI_RxSoftwareReset
                0x0000000000000000       0x36 ./drivers/fsl_sai.o
 .text.SAI_TxSetChannelFIFOMask
                0x0000000000000000       0x36 ./drivers/fsl_sai.o
 .text.SAI_RxSetChannelFIFOMask
                0x0000000000000000       0x3e ./drivers/fsl_sai.o
 .text.SAI_TxSetDataOrder
                0x0000000000000000       0x36 ./drivers/fsl_sai.o
 .text.SAI_RxSetDataOrder
                0x0000000000000000       0x3a ./drivers/fsl_sai.o
 .text.SAI_TxSetBitClockPolarity
                0x0000000000000000       0x36 ./drivers/fsl_sai.o
 .text.SAI_RxSetBitClockPolarity
                0x0000000000000000       0x3a ./drivers/fsl_sai.o
 .text.SAI_TxSetFrameSyncPolarity
                0x0000000000000000       0x36 ./drivers/fsl_sai.o
 .text.SAI_RxSetFrameSyncPolarity
                0x0000000000000000       0x3a ./drivers/fsl_sai.o
 .text.SAI_TxSetFIFOPacking
                0x0000000000000000       0x3a ./drivers/fsl_sai.o
 .text.SAI_RxSetFIFOPacking
                0x0000000000000000       0x3e ./drivers/fsl_sai.o
 .text.SAI_RxSetFormat
                0x0000000000000000      0x1a4 ./drivers/fsl_sai.o
 .text.SAI_WriteBlocking
                0x0000000000000000       0x66 ./drivers/fsl_sai.o
 .text.SAI_ReadBlocking
                0x0000000000000000       0x5a ./drivers/fsl_sai.o
 .text.SAI_TransferTxCreateHandle
                0x0000000000000000       0x6c ./drivers/fsl_sai.o
 .text.SAI_TransferRxCreateHandle
                0x0000000000000000       0x70 ./drivers/fsl_sai.o
 .text.SAI_TransferTxSetFormat
                0x0000000000000000       0x68 ./drivers/fsl_sai.o
 .text.SAI_TransferRxSetFormat
                0x0000000000000000       0x68 ./drivers/fsl_sai.o
 .text.SAI_TransferSendNonBlocking
                0x0000000000000000       0xc0 ./drivers/fsl_sai.o
 .text.SAI_TransferReceiveNonBlocking
                0x0000000000000000       0xc0 ./drivers/fsl_sai.o
 .text.SAI_TransferGetSendCount
                0x0000000000000000       0x64 ./drivers/fsl_sai.o
 .text.SAI_TransferGetReceiveCount
                0x0000000000000000       0x64 ./drivers/fsl_sai.o
 .text.SAI_TransferAbortSend
                0x0000000000000000       0x58 ./drivers/fsl_sai.o
 .text.SAI_TransferAbortReceive
                0x0000000000000000       0x58 ./drivers/fsl_sai.o
 .text.SAI_TransferTerminateSend
                0x0000000000000000       0x58 ./drivers/fsl_sai.o
 .text.SAI_TransferTerminateReceive
                0x0000000000000000       0x58 ./drivers/fsl_sai.o
 .text.SAI_TransferTxHandleIRQ
                0x0000000000000000      0x1bc ./drivers/fsl_sai.o
 .text.SAI_TransferRxHandleIRQ
                0x0000000000000000      0x1b8 ./drivers/fsl_sai.o
 .text.I2S0_DriverIRQHandler
                0x0000000000000000       0xb0 ./drivers/fsl_sai.o
 .text.I2S0_Tx_DriverIRQHandler
                0x0000000000000000       0x38 ./drivers/fsl_sai.o
 .text          0x0000000000000000        0x0 ./drivers/fsl_sai_edma.o
 .data          0x0000000000000000        0x0 ./drivers/fsl_sai_edma.o
 .bss           0x0000000000000000        0x0 ./drivers/fsl_sai_edma.o
 .text.SAI_RxEnableDMA
                0x0000000000000000       0x4c ./drivers/fsl_sai_edma.o
 .text.SAI_RxGetDataRegisterAddress
                0x0000000000000000       0x20 ./drivers/fsl_sai_edma.o
 .rodata.s_saiBases
                0x0000000000000000        0x4 ./drivers/fsl_sai_edma.o
 .text.SAI_RxEDMACallback
                0x0000000000000000       0xa4 ./drivers/fsl_sai_edma.o
 .text.SAI_TransferRxCreateHandleEDMA
                0x0000000000000000       0xa4 ./drivers/fsl_sai_edma.o
 .text.SAI_TransferRxSetFormatEDMA
                0x0000000000000000       0x74 ./drivers/fsl_sai_edma.o
 .text.SAI_TransferReceiveEDMA
                0x0000000000000000      0x188 ./drivers/fsl_sai_edma.o
 .text.SAI_TransferAbortSendEDMA
                0x0000000000000000       0xa4 ./drivers/fsl_sai_edma.o
 .text.SAI_TransferAbortReceiveEDMA
                0x0000000000000000       0xb0 ./drivers/fsl_sai_edma.o
 .text.SAI_TransferTerminateSendEDMA
                0x0000000000000000       0x64 ./drivers/fsl_sai_edma.o
 .text.SAI_TransferTerminateReceiveEDMA
                0x0000000000000000       0x64 ./drivers/fsl_sai_edma.o
 .text.SAI_TransferGetSendCountEDMA
                0x0000000000000000       0x70 ./drivers/fsl_sai_edma.o
 .text.SAI_TransferGetReceiveCountEDMA
                0x0000000000000000       0x70 ./drivers/fsl_sai_edma.o
 .text          0x0000000000000000        0x0 ./drivers/fsl_sim.o
 .data          0x0000000000000000        0x0 ./drivers/fsl_sim.o
 .bss           0x0000000000000000        0x0 ./drivers/fsl_sim.o
 .text.SIM_SetUsbVoltRegulatorEnableMode
                0x0000000000000000       0x34 ./drivers/fsl_sim.o
 .text.SIM_GetUniqueId
                0x0000000000000000       0x40 ./drivers/fsl_sim.o
 .debug_info    0x0000000000000000      0x359 ./drivers/fsl_sim.o
 .debug_abbrev  0x0000000000000000      0x159 ./drivers/fsl_sim.o
 .debug_aranges
                0x0000000000000000       0x28 ./drivers/fsl_sim.o
 .debug_ranges  0x0000000000000000       0x18 ./drivers/fsl_sim.o
 .debug_line    0x0000000000000000      0x151 ./drivers/fsl_sim.o
 .debug_str     0x0000000000000000      0x3ca ./drivers/fsl_sim.o
 .comment       0x0000000000000000       0x7f ./drivers/fsl_sim.o
 .debug_frame   0x0000000000000000       0x60 ./drivers/fsl_sim.o
 .ARM.attributes
                0x0000000000000000       0x39 ./drivers/fsl_sim.o
 .text          0x0000000000000000        0x0 ./drivers/fsl_smc.o
 .data          0x0000000000000000        0x0 ./drivers/fsl_smc.o
 .bss           0x0000000000000000        0x0 ./drivers/fsl_smc.o
 .text.DisableGlobalIRQ
                0x0000000000000000       0x20 ./drivers/fsl_smc.o
 .text.EnableGlobalIRQ
                0x0000000000000000       0x1e ./drivers/fsl_smc.o
 .bss.g_savedPrimask
                0x0000000000000000        0x4 ./drivers/fsl_smc.o
 .rodata        0x0000000000000000        0x2 ./drivers/fsl_smc.o
 .text.SMC_PreEnterStopModes
                0x0000000000000000       0x34 ./drivers/fsl_smc.o
 .text.SMC_PostExitStopModes
                0x0000000000000000       0x30 ./drivers/fsl_smc.o
 .text.SMC_PreEnterWaitModes
                0x0000000000000000       0x1c ./drivers/fsl_smc.o
 .text.SMC_PostExitWaitModes
                0x0000000000000000       0x1c ./drivers/fsl_smc.o
 .text.SMC_SetPowerModeRun
                0x0000000000000000       0x2a ./drivers/fsl_smc.o
 .text.SMC_SetPowerModeHsrun
                0x0000000000000000       0x32 ./drivers/fsl_smc.o
 .text.SMC_SetPowerModeWait
                0x0000000000000000       0x30 ./drivers/fsl_smc.o
 .text.SMC_SetPowerModeStop
                0x0000000000000000       0x80 ./drivers/fsl_smc.o
 .text.SMC_SetPowerModeVlpr
                0x0000000000000000       0x32 ./drivers/fsl_smc.o
 .text.SMC_SetPowerModeVlpw
                0x0000000000000000       0x30 ./drivers/fsl_smc.o
 .text.SMC_SetPowerModeVlps
                0x0000000000000000       0x64 ./drivers/fsl_smc.o
 .text.SMC_SetPowerModeLls
                0x0000000000000000       0x84 ./drivers/fsl_smc.o
 .text.SMC_SetPowerModeVlls
                0x0000000000000000       0xb8 ./drivers/fsl_smc.o
 .debug_info    0x0000000000000000      0xab6 ./drivers/fsl_smc.o
 .debug_abbrev  0x0000000000000000      0x29c ./drivers/fsl_smc.o
 .debug_aranges
                0x0000000000000000       0x90 ./drivers/fsl_smc.o
 .debug_ranges  0x0000000000000000       0x80 ./drivers/fsl_smc.o
 .debug_line    0x0000000000000000      0x3aa ./drivers/fsl_smc.o
 .debug_str     0x0000000000000000      0xcc8 ./drivers/fsl_smc.o
 .comment       0x0000000000000000       0x7f ./drivers/fsl_smc.o
 .debug_frame   0x0000000000000000      0x248 ./drivers/fsl_smc.o
 .ARM.attributes
                0x0000000000000000       0x39 ./drivers/fsl_smc.o
 .text          0x0000000000000000        0x0 ./drivers/fsl_uart.o
 .data          0x0000000000000000        0x0 ./drivers/fsl_uart.o
 .bss           0x0000000000000000        0x0 ./drivers/fsl_uart.o
 .text.__NVIC_EnableIRQ
                0x0000000000000000       0x3c ./drivers/fsl_uart.o
 .text.CLOCK_DisableClock
                0x0000000000000000       0x38 ./drivers/fsl_uart.o
 .text.EnableIRQ
                0x0000000000000000       0x2c ./drivers/fsl_uart.o
 .rodata.s_uartIRQ
                0x0000000000000000        0x3 ./drivers/fsl_uart.o
 .text.UART_TransferGetRxRingBufferLength
                0x0000000000000000       0x60 ./drivers/fsl_uart.o
 .text.UART_TransferIsRxRingBufferFull
                0x0000000000000000       0x40 ./drivers/fsl_uart.o
 .text.UART_Deinit
                0x0000000000000000       0x4c ./drivers/fsl_uart.o
 .text.UART_SetBaudRate
                0x0000000000000000      0x108 ./drivers/fsl_uart.o
 .text.UART_EnableInterrupts
                0x0000000000000000       0x70 ./drivers/fsl_uart.o
 .text.UART_DisableInterrupts
                0x0000000000000000       0x80 ./drivers/fsl_uart.o
 .text.UART_GetEnabledInterrupts
                0x0000000000000000       0x4c ./drivers/fsl_uart.o
 .text.UART_GetStatusFlags
                0x0000000000000000       0x46 ./drivers/fsl_uart.o
 .text.UART_ClearStatusFlags
                0x0000000000000000       0x8c ./drivers/fsl_uart.o
 .text.UART_WriteBlocking
                0x0000000000000000       0x3e ./drivers/fsl_uart.o
 .text.UART_WriteNonBlocking
                0x0000000000000000       0x44 ./drivers/fsl_uart.o
 .text.UART_ReadBlocking
                0x0000000000000000       0x90 ./drivers/fsl_uart.o
 .text.UART_ReadNonBlocking
                0x0000000000000000       0x48 ./drivers/fsl_uart.o
 .text.UART_TransferCreateHandle
                0x0000000000000000       0x84 ./drivers/fsl_uart.o
 .text.UART_TransferStartRingBuffer
                0x0000000000000000       0x74 ./drivers/fsl_uart.o
 .text.UART_TransferStopRingBuffer
                0x0000000000000000       0x6c ./drivers/fsl_uart.o
 .text.UART_TransferSendNonBlocking
                0x0000000000000000       0x9c ./drivers/fsl_uart.o
 .text.UART_TransferAbortSend
                0x0000000000000000       0x3c ./drivers/fsl_uart.o
 .text.UART_TransferGetSendCount
                0x0000000000000000       0x54 ./drivers/fsl_uart.o
 .text.UART_TransferReceiveNonBlocking
                0x0000000000000000      0x1b0 ./drivers/fsl_uart.o
 .text.UART_TransferAbortReceive
                0x0000000000000000       0x5c ./drivers/fsl_uart.o
 .text.UART_TransferGetReceiveCount
                0x0000000000000000       0x60 ./drivers/fsl_uart.o
 .text.UART_TransferHandleIRQ
                0x0000000000000000      0x4f0 ./drivers/fsl_uart.o
 .text.UART_TransferHandleErrorIRQ
                0x0000000000000000       0x16 ./drivers/fsl_uart.o
 .text          0x0000000000000000        0x0 ./codec/fsl_codec_common.o
 .data          0x0000000000000000        0x0 ./codec/fsl_codec_common.o
 .bss           0x0000000000000000        0x0 ./codec/fsl_codec_common.o
 .text.CODEC_I2C_ModifyReg
                0x0000000000000000       0x6c ./codec/fsl_codec_common.o
 .text          0x0000000000000000        0x0 ./codec/fsl_sgtl5000.o
 .data          0x0000000000000000        0x0 ./codec/fsl_sgtl5000.o
 .bss           0x0000000000000000        0x0 ./codec/fsl_sgtl5000.o
 .text.SGTL_SetVolume
                0x0000000000000000       0xd8 ./codec/fsl_sgtl5000.o
 .text.SGTL_GetVolume
                0x0000000000000000       0xb4 ./codec/fsl_sgtl5000.o
 .text.SGTL_SetMute
                0x0000000000000000       0xb4 ./codec/fsl_sgtl5000.o
 .text          0x0000000000000000        0x0 ./board/src/board.o
 .data          0x0000000000000000        0x0 ./board/src/board.o
 .bss           0x0000000000000000        0x0 ./board/src/board.o
 .text.BOARD_Accel_I2C_Init
                0x0000000000000000       0x1c ./board/src/board.o
 .text.BOARD_Accel_I2C_Send
                0x0000000000000000       0x40 ./board/src/board.o
 .text.BOARD_Accel_I2C_Receive
                0x0000000000000000       0x38 ./board/src/board.o
 .text          0x0000000000000000        0x0 ./board/src/clock_config.o
 .data          0x0000000000000000        0x0 ./board/src/clock_config.o
 .bss           0x0000000000000000        0x0 ./board/src/clock_config.o
 .text.SMC_SetPowerModeProtection
                0x0000000000000000       0x1e ./board/src/clock_config.o
 .text.SMC_GetPowerModeState
                0x0000000000000000       0x1a ./board/src/clock_config.o
 .rodata.mcgConfig_BOARD_BootClockVLPR
                0x0000000000000000        0xb ./board/src/clock_config.o
 .rodata.simConfig_BOARD_BootClockVLPR
                0x0000000000000000        0x8 ./board/src/clock_config.o
 .rodata.oscConfig_BOARD_BootClockVLPR
                0x0000000000000000        0x8 ./board/src/clock_config.o
 .text.BOARD_BootClockVLPR
                0x0000000000000000       0x50 ./board/src/clock_config.o
 .rodata.mcgConfig_BOARD_BootClockHSRUN
                0x0000000000000000        0xb ./board/src/clock_config.o
 .rodata.simConfig_BOARD_BootClockHSRUN
                0x0000000000000000        0x8 ./board/src/clock_config.o
 .rodata.oscConfig_BOARD_BootClockHSRUN
                0x0000000000000000        0x8 ./board/src/clock_config.o
 .text.BOARD_BootClockHSRUN
                0x0000000000000000       0x80 ./board/src/clock_config.o
 .text          0x0000000000000000        0x0 ./board/src/pin_mux.o
 .data          0x0000000000000000        0x0 ./board/src/pin_mux.o
 .bss           0x0000000000000000        0x0 ./board/src/pin_mux.o
 .text          0x0000000000000000        0x0 ./board/peripherals.o
 .data          0x0000000000000000        0x0 ./board/peripherals.o
 .bss           0x0000000000000000        0x0 ./board/peripherals.o
 .text.BOARD_InitBootPeripherals
                0x0000000000000000        0xe ./board/peripherals.o
 .debug_info    0x0000000000000000       0x37 ./board/peripherals.o
 .debug_abbrev  0x0000000000000000       0x2c ./board/peripherals.o
 .debug_aranges
                0x0000000000000000       0x20 ./board/peripherals.o
 .debug_ranges  0x0000000000000000       0x10 ./board/peripherals.o
 .debug_line    0x0000000000000000       0x47 ./board/peripherals.o
 .debug_str     0x0000000000000000      0x152 ./board/peripherals.o
 .comment       0x0000000000000000       0x7f ./board/peripherals.o
 .debug_frame   0x0000000000000000       0x30 ./board/peripherals.o
 .ARM.attributes
                0x0000000000000000       0x39 ./board/peripherals.o
 .text          0x0000000000000000        0x0 ./CMSIS/system_MK22F51212.o
 .data          0x0000000000000000        0x0 ./CMSIS/system_MK22F51212.o
 .bss           0x0000000000000000        0x0 ./CMSIS/system_MK22F51212.o
 .text          0x0000000000000000        0x0 /usr/local/mcuxpressoide-10.2.1_795/ide/tools/bin/../lib/gcc/arm-none-eabi/7.2.1/../../../../arm-none-eabi/lib/thumb/v7e-m/fpv4-sp/hard/libcr_semihost_nf.a(_cr__main.o)
 .data          0x0000000000000000        0x0 /usr/local/mcuxpressoide-10.2.1_795/ide/tools/bin/../lib/gcc/arm-none-eabi/7.2.1/../../../../arm-none-eabi/lib/thumb/v7e-m/fpv4-sp/hard/libcr_semihost_nf.a(_cr__main.o)
 .bss           0x0000000000000000        0x0 /usr/local/mcuxpressoide-10.2.1_795/ide/tools/bin/../lib/gcc/arm-none-eabi/7.2.1/../../../../arm-none-eabi/lib/thumb/v7e-m/fpv4-sp/hard/libcr_semihost_nf.a(_cr__main.o)
 .text          0x0000000000000000        0x0 /usr/local/mcuxpressoide-10.2.1_795/ide/tools/bin/../lib/gcc/arm-none-eabi/7.2.1/../../../../arm-none-eabi/lib/thumb/v7e-m/fpv4-sp/hard/libcr_semihost_nf.a(_cr_assert.o)
 .data          0x0000000000000000        0x0 /usr/local/mcuxpressoide-10.2.1_795/ide/tools/bin/../lib/gcc/arm-none-eabi/7.2.1/../../../../arm-none-eabi/lib/thumb/v7e-m/fpv4-sp/hard/libcr_semihost_nf.a(_cr_assert.o)
 .bss           0x0000000000000000        0x0 /usr/local/mcuxpressoide-10.2.1_795/ide/tools/bin/../lib/gcc/arm-none-eabi/7.2.1/../../../../arm-none-eabi/lib/thumb/v7e-m/fpv4-sp/hard/libcr_semihost_nf.a(_cr_assert.o)
 .text          0x0000000000000000        0x0 /usr/local/mcuxpressoide-10.2.1_795/ide/tools/bin/../lib/gcc/arm-none-eabi/7.2.1/../../../../arm-none-eabi/lib/thumb/v7e-m/fpv4-sp/hard/libcr_semihost_nf.a(__ciob.o)
 .data          0x0000000000000000        0x0 /usr/local/mcuxpressoide-10.2.1_795/ide/tools/bin/../lib/gcc/arm-none-eabi/7.2.1/../../../../arm-none-eabi/lib/thumb/v7e-m/fpv4-sp/hard/libcr_semihost_nf.a(__ciob.o)
 .bss           0x0000000000000000        0x0 /usr/local/mcuxpressoide-10.2.1_795/ide/tools/bin/../lib/gcc/arm-none-eabi/7.2.1/../../../../arm-none-eabi/lib/thumb/v7e-m/fpv4-sp/hard/libcr_semihost_nf.a(__ciob.o)
 .text          0x0000000000000000        0x0 /usr/local/mcuxpressoide-10.2.1_795/ide/tools/bin/../lib/gcc/arm-none-eabi/7.2.1/../../../../arm-none-eabi/lib/thumb/v7e-m/fpv4-sp/hard/libcr_semihost_nf.a(__sys_appexit.o)
 .data          0x0000000000000000        0x0 /usr/local/mcuxpressoide-10.2.1_795/ide/tools/bin/../lib/gcc/arm-none-eabi/7.2.1/../../../../arm-none-eabi/lib/thumb/v7e-m/fpv4-sp/hard/libcr_semihost_nf.a(__sys_appexit.o)
 .bss           0x0000000000000000        0x0 /usr/local/mcuxpressoide-10.2.1_795/ide/tools/bin/../lib/gcc/arm-none-eabi/7.2.1/../../../../arm-none-eabi/lib/thumb/v7e-m/fpv4-sp/hard/libcr_semihost_nf.a(__sys_appexit.o)
 .text          0x0000000000000000        0x0 /usr/local/mcuxpressoide-10.2.1_795/ide/tools/bin/../lib/gcc/arm-none-eabi/7.2.1/../../../../arm-none-eabi/lib/thumb/v7e-m/fpv4-sp/hard/libcr_c.a(memcpy.o)
 .data          0x0000000000000000        0x0 /usr/local/mcuxpressoide-10.2.1_795/ide/tools/bin/../lib/gcc/arm-none-eabi/7.2.1/../../../../arm-none-eabi/lib/thumb/v7e-m/fpv4-sp/hard/libcr_c.a(memcpy.o)
 .bss           0x0000000000000000        0x0 /usr/local/mcuxpressoide-10.2.1_795/ide/tools/bin/../lib/gcc/arm-none-eabi/7.2.1/../../../../arm-none-eabi/lib/thumb/v7e-m/fpv4-sp/hard/libcr_c.a(memcpy.o)
 .text          0x0000000000000000        0x0 /usr/local/mcuxpressoide-10.2.1_795/ide/tools/bin/../lib/gcc/arm-none-eabi/7.2.1/../../../../arm-none-eabi/lib/thumb/v7e-m/fpv4-sp/hard/libcr_c.a(memset.o)
 .data          0x0000000000000000        0x0 /usr/local/mcuxpressoide-10.2.1_795/ide/tools/bin/../lib/gcc/arm-none-eabi/7.2.1/../../../../arm-none-eabi/lib/thumb/v7e-m/fpv4-sp/hard/libcr_c.a(memset.o)
 .bss           0x0000000000000000        0x0 /usr/local/mcuxpressoide-10.2.1_795/ide/tools/bin/../lib/gcc/arm-none-eabi/7.2.1/../../../../arm-none-eabi/lib/thumb/v7e-m/fpv4-sp/hard/libcr_c.a(memset.o)
 .text          0x0000000000000000        0x0 /usr/local/mcuxpressoide-10.2.1_795/ide/tools/bin/../lib/gcc/arm-none-eabi/7.2.1/../../../../arm-none-eabi/lib/thumb/v7e-m/fpv4-sp/hard/libcr_c.a(_deferredlazyseek.o)
 .data          0x0000000000000000        0x0 /usr/local/mcuxpressoide-10.2.1_795/ide/tools/bin/../lib/gcc/arm-none-eabi/7.2.1/../../../../arm-none-eabi/lib/thumb/v7e-m/fpv4-sp/hard/libcr_c.a(_deferredlazyseek.o)
 .bss           0x0000000000000000        0x0 /usr/local/mcuxpressoide-10.2.1_795/ide/tools/bin/../lib/gcc/arm-none-eabi/7.2.1/../../../../arm-none-eabi/lib/thumb/v7e-m/fpv4-sp/hard/libcr_c.a(_deferredlazyseek.o)
 .text          0x0000000000000000        0x0 /usr/local/mcuxpressoide-10.2.1_795/ide/tools/bin/../lib/gcc/arm-none-eabi/7.2.1/../../../../arm-none-eabi/lib/thumb/v7e-m/fpv4-sp/hard/libcr_c.a(_fflush.o)
 .data          0x0000000000000000        0x0 /usr/local/mcuxpressoide-10.2.1_795/ide/tools/bin/../lib/gcc/arm-none-eabi/7.2.1/../../../../arm-none-eabi/lib/thumb/v7e-m/fpv4-sp/hard/libcr_c.a(_fflush.o)
 .bss           0x0000000000000000        0x0 /usr/local/mcuxpressoide-10.2.1_795/ide/tools/bin/../lib/gcc/arm-none-eabi/7.2.1/../../../../arm-none-eabi/lib/thumb/v7e-m/fpv4-sp/hard/libcr_c.a(_fflush.o)
 .text          0x0000000000000000        0x0 /usr/local/mcuxpressoide-10.2.1_795/ide/tools/bin/../lib/gcc/arm-none-eabi/7.2.1/../../../../arm-none-eabi/lib/thumb/v7e-m/fpv4-sp/hard/libcr_c.a(_writebuf.o)
 .data          0x0000000000000000        0x0 /usr/local/mcuxpressoide-10.2.1_795/ide/tools/bin/../lib/gcc/arm-none-eabi/7.2.1/../../../../arm-none-eabi/lib/thumb/v7e-m/fpv4-sp/hard/libcr_c.a(_writebuf.o)
 .bss           0x0000000000000000        0x0 /usr/local/mcuxpressoide-10.2.1_795/ide/tools/bin/../lib/gcc/arm-none-eabi/7.2.1/../../../../arm-none-eabi/lib/thumb/v7e-m/fpv4-sp/hard/libcr_c.a(_writebuf.o)
 .text          0x0000000000000000        0x0 /usr/local/mcuxpressoide-10.2.1_795/ide/tools/bin/../lib/gcc/arm-none-eabi/7.2.1/../../../../arm-none-eabi/lib/thumb/v7e-m/fpv4-sp/hard/libcr_c.a(alloc.o)
 .data          0x0000000000000000        0x0 /usr/local/mcuxpressoide-10.2.1_795/ide/tools/bin/../lib/gcc/arm-none-eabi/7.2.1/../../../../arm-none-eabi/lib/thumb/v7e-m/fpv4-sp/hard/libcr_c.a(alloc.o)
 .bss           0x0000000000000000        0x0 /usr/local/mcuxpressoide-10.2.1_795/ide/tools/bin/../lib/gcc/arm-none-eabi/7.2.1/../../../../arm-none-eabi/lib/thumb/v7e-m/fpv4-sp/hard/libcr_c.a(alloc.o)
 .text.calloc   0x0000000000000000       0x50 /usr/local/mcuxpressoide-10.2.1_795/ide/tools/bin/../lib/gcc/arm-none-eabi/7.2.1/../../../../arm-none-eabi/lib/thumb/v7e-m/fpv4-sp/hard/libcr_c.a(alloc.o)
 .text.realloc  0x0000000000000000       0x24 /usr/local/mcuxpressoide-10.2.1_795/ide/tools/bin/../lib/gcc/arm-none-eabi/7.2.1/../../../../arm-none-eabi/lib/thumb/v7e-m/fpv4-sp/hard/libcr_c.a(alloc.o)
 .text          0x0000000000000000        0x0 /usr/local/mcuxpressoide-10.2.1_795/ide/tools/bin/../lib/gcc/arm-none-eabi/7.2.1/../../../../arm-none-eabi/lib/thumb/v7e-m/fpv4-sp/hard/libcr_c.a(fputs.o)
 .data          0x0000000000000000        0x0 /usr/local/mcuxpressoide-10.2.1_795/ide/tools/bin/../lib/gcc/arm-none-eabi/7.2.1/../../../../arm-none-eabi/lib/thumb/v7e-m/fpv4-sp/hard/libcr_c.a(fputs.o)
 .bss           0x0000000000000000        0x0 /usr/local/mcuxpressoide-10.2.1_795/ide/tools/bin/../lib/gcc/arm-none-eabi/7.2.1/../../../../arm-none-eabi/lib/thumb/v7e-m/fpv4-sp/hard/libcr_c.a(fputs.o)
 .text          0x0000000000000000        0x0 /usr/local/mcuxpressoide-10.2.1_795/ide/tools/bin/../lib/gcc/arm-none-eabi/7.2.1/../../../../arm-none-eabi/lib/thumb/v7e-m/fpv4-sp/hard/libcr_c.a(fseek.o)
 .data          0x0000000000000000        0x0 /usr/local/mcuxpressoide-10.2.1_795/ide/tools/bin/../lib/gcc/arm-none-eabi/7.2.1/../../../../arm-none-eabi/lib/thumb/v7e-m/fpv4-sp/hard/libcr_c.a(fseek.o)
 .bss           0x0000000000000000        0x0 /usr/local/mcuxpressoide-10.2.1_795/ide/tools/bin/../lib/gcc/arm-none-eabi/7.2.1/../../../../arm-none-eabi/lib/thumb/v7e-m/fpv4-sp/hard/libcr_c.a(fseek.o)
 .text          0x0000000000000000        0x0 /usr/local/mcuxpressoide-10.2.1_795/ide/tools/bin/../lib/gcc/arm-none-eabi/7.2.1/../../../../arm-none-eabi/lib/thumb/v7e-m/fpv4-sp/hard/libcr_c.a(ftell.o)
 .data          0x0000000000000000        0x0 /usr/local/mcuxpressoide-10.2.1_795/ide/tools/bin/../lib/gcc/arm-none-eabi/7.2.1/../../../../arm-none-eabi/lib/thumb/v7e-m/fpv4-sp/hard/libcr_c.a(ftell.o)
 .bss           0x0000000000000000        0x0 /usr/local/mcuxpressoide-10.2.1_795/ide/tools/bin/../lib/gcc/arm-none-eabi/7.2.1/../../../../arm-none-eabi/lib/thumb/v7e-m/fpv4-sp/hard/libcr_c.a(ftell.o)
 .text          0x0000000000000000        0x0 /usr/local/mcuxpressoide-10.2.1_795/ide/tools/bin/../lib/gcc/arm-none-eabi/7.2.1/../../../../arm-none-eabi/lib/thumb/v7e-m/fpv4-sp/hard/libcr_c.a(initio.o)
 .data          0x0000000000000000        0x0 /usr/local/mcuxpressoide-10.2.1_795/ide/tools/bin/../lib/gcc/arm-none-eabi/7.2.1/../../../../arm-none-eabi/lib/thumb/v7e-m/fpv4-sp/hard/libcr_c.a(initio.o)
 .bss           0x0000000000000000        0x0 /usr/local/mcuxpressoide-10.2.1_795/ide/tools/bin/../lib/gcc/arm-none-eabi/7.2.1/../../../../arm-none-eabi/lib/thumb/v7e-m/fpv4-sp/hard/libcr_c.a(initio.o)
 .text._terminateio
                0x0000000000000000       0x50 /usr/local/mcuxpressoide-10.2.1_795/ide/tools/bin/../lib/gcc/arm-none-eabi/7.2.1/../../../../arm-none-eabi/lib/thumb/v7e-m/fpv4-sp/hard/libcr_c.a(initio.o)
 .text          0x0000000000000000        0x0 /usr/local/mcuxpressoide-10.2.1_795/ide/tools/bin/../lib/gcc/arm-none-eabi/7.2.1/../../../../arm-none-eabi/lib/thumb/v7e-m/fpv4-sp/hard/libcr_c.a(printf.o)
 .data          0x0000000000000000        0x0 /usr/local/mcuxpressoide-10.2.1_795/ide/tools/bin/../lib/gcc/arm-none-eabi/7.2.1/../../../../arm-none-eabi/lib/thumb/v7e-m/fpv4-sp/hard/libcr_c.a(printf.o)
 .bss           0x0000000000000000        0x0 /usr/local/mcuxpressoide-10.2.1_795/ide/tools/bin/../lib/gcc/arm-none-eabi/7.2.1/../../../../arm-none-eabi/lib/thumb/v7e-m/fpv4-sp/hard/libcr_c.a(printf.o)
 .text._fprintf
                0x0000000000000000       0x30 /usr/local/mcuxpressoide-10.2.1_795/ide/tools/bin/../lib/gcc/arm-none-eabi/7.2.1/../../../../arm-none-eabi/lib/thumb/v7e-m/fpv4-sp/hard/libcr_c.a(printf.o)
 .text._printf_char
                0x0000000000000000       0x34 /usr/local/mcuxpressoide-10.2.1_795/ide/tools/bin/../lib/gcc/arm-none-eabi/7.2.1/../../../../arm-none-eabi/lib/thumb/v7e-m/fpv4-sp/hard/libcr_c.a(printf.o)
 .text._sprintf
                0x0000000000000000       0x6c /usr/local/mcuxpressoide-10.2.1_795/ide/tools/bin/../lib/gcc/arm-none-eabi/7.2.1/../../../../arm-none-eabi/lib/thumb/v7e-m/fpv4-sp/hard/libcr_c.a(printf.o)
 .text._snprintf
                0x0000000000000000       0x68 /usr/local/mcuxpressoide-10.2.1_795/ide/tools/bin/../lib/gcc/arm-none-eabi/7.2.1/../../../../arm-none-eabi/lib/thumb/v7e-m/fpv4-sp/hard/libcr_c.a(printf.o)
 .text._vfprintf
                0x0000000000000000       0x20 /usr/local/mcuxpressoide-10.2.1_795/ide/tools/bin/../lib/gcc/arm-none-eabi/7.2.1/../../../../arm-none-eabi/lib/thumb/v7e-m/fpv4-sp/hard/libcr_c.a(printf.o)
 .text._vprintf
                0x0000000000000000       0x28 /usr/local/mcuxpressoide-10.2.1_795/ide/tools/bin/../lib/gcc/arm-none-eabi/7.2.1/../../../../arm-none-eabi/lib/thumb/v7e-m/fpv4-sp/hard/libcr_c.a(printf.o)
 .text._vsprintf
                0x0000000000000000       0x5c /usr/local/mcuxpressoide-10.2.1_795/ide/tools/bin/../lib/gcc/arm-none-eabi/7.2.1/../../../../arm-none-eabi/lib/thumb/v7e-m/fpv4-sp/hard/libcr_c.a(printf.o)
 .text          0x0000000000000000        0x0 /usr/local/mcuxpressoide-10.2.1_795/ide/tools/bin/../lib/gcc/arm-none-eabi/7.2.1/../../../../arm-none-eabi/lib/thumb/v7e-m/fpv4-sp/hard/libcr_c.a(setvbuf.o)
 .data          0x0000000000000000        0x0 /usr/local/mcuxpressoide-10.2.1_795/ide/tools/bin/../lib/gcc/arm-none-eabi/7.2.1/../../../../arm-none-eabi/lib/thumb/v7e-m/fpv4-sp/hard/libcr_c.a(setvbuf.o)
 .bss           0x0000000000000000        0x0 /usr/local/mcuxpressoide-10.2.1_795/ide/tools/bin/../lib/gcc/arm-none-eabi/7.2.1/../../../../arm-none-eabi/lib/thumb/v7e-m/fpv4-sp/hard/libcr_c.a(setvbuf.o)
 .text          0x0000000000000000        0x0 /usr/local/mcuxpressoide-10.2.1_795/ide/tools/bin/../lib/gcc/arm-none-eabi/7.2.1/../../../../arm-none-eabi/lib/thumb/v7e-m/fpv4-sp/hard/libcr_c.a(strlen.o)
 .data          0x0000000000000000        0x0 /usr/local/mcuxpressoide-10.2.1_795/ide/tools/bin/../lib/gcc/arm-none-eabi/7.2.1/../../../../arm-none-eabi/lib/thumb/v7e-m/fpv4-sp/hard/libcr_c.a(strlen.o)
 .bss           0x0000000000000000        0x0 /usr/local/mcuxpressoide-10.2.1_795/ide/tools/bin/../lib/gcc/arm-none-eabi/7.2.1/../../../../arm-none-eabi/lib/thumb/v7e-m/fpv4-sp/hard/libcr_c.a(strlen.o)
 .text          0x0000000000000000        0x0 /usr/local/mcuxpressoide-10.2.1_795/ide/tools/bin/../lib/gcc/arm-none-eabi/7.2.1/../../../../arm-none-eabi/lib/thumb/v7e-m/fpv4-sp/hard/libcr_c.a(__init_alloc.o)
 .data          0x0000000000000000        0x0 /usr/local/mcuxpressoide-10.2.1_795/ide/tools/bin/../lib/gcc/arm-none-eabi/7.2.1/../../../../arm-none-eabi/lib/thumb/v7e-m/fpv4-sp/hard/libcr_c.a(__init_alloc.o)
 .bss           0x0000000000000000        0x0 /usr/local/mcuxpressoide-10.2.1_795/ide/tools/bin/../lib/gcc/arm-none-eabi/7.2.1/../../../../arm-none-eabi/lib/thumb/v7e-m/fpv4-sp/hard/libcr_c.a(__init_alloc.o)
 .text._init_alloc
                0x0000000000000000       0x14 /usr/local/mcuxpressoide-10.2.1_795/ide/tools/bin/../lib/gcc/arm-none-eabi/7.2.1/../../../../arm-none-eabi/lib/thumb/v7e-m/fpv4-sp/hard/libcr_c.a(__init_alloc.o)
 .text          0x0000000000000000        0x0 /usr/local/mcuxpressoide-10.2.1_795/ide/tools/bin/../lib/gcc/arm-none-eabi/7.2.1/../../../../arm-none-eabi/lib/thumb/v7e-m/fpv4-sp/hard/libcr_c.a(_cr_sbrk.o)
 .data          0x0000000000000000        0x0 /usr/local/mcuxpressoide-10.2.1_795/ide/tools/bin/../lib/gcc/arm-none-eabi/7.2.1/../../../../arm-none-eabi/lib/thumb/v7e-m/fpv4-sp/hard/libcr_c.a(_cr_sbrk.o)
 .bss           0x0000000000000000        0x0 /usr/local/mcuxpressoide-10.2.1_795/ide/tools/bin/../lib/gcc/arm-none-eabi/7.2.1/../../../../arm-none-eabi/lib/thumb/v7e-m/fpv4-sp/hard/libcr_c.a(_cr_sbrk.o)
 .text          0x0000000000000000        0x0 /usr/local/mcuxpressoide-10.2.1_795/ide/tools/bin/../lib/gcc/arm-none-eabi/7.2.1/../../../../arm-none-eabi/lib/thumb/v7e-m/fpv4-sp/hard/libcr_c.a(_fdopen.o)
 .data          0x0000000000000000        0x0 /usr/local/mcuxpressoide-10.2.1_795/ide/tools/bin/../lib/gcc/arm-none-eabi/7.2.1/../../../../arm-none-eabi/lib/thumb/v7e-m/fpv4-sp/hard/libcr_c.a(_fdopen.o)
 .bss           0x0000000000000000        0x0 /usr/local/mcuxpressoide-10.2.1_795/ide/tools/bin/../lib/gcc/arm-none-eabi/7.2.1/../../../../arm-none-eabi/lib/thumb/v7e-m/fpv4-sp/hard/libcr_c.a(_fdopen.o)
 .text          0x0000000000000000        0x0 /usr/local/mcuxpressoide-10.2.1_795/ide/tools/bin/../lib/gcc/arm-none-eabi/7.2.1/../../../../arm-none-eabi/lib/thumb/v7e-m/fpv4-sp/hard/libcr_c.a(errno.o)
 .data          0x0000000000000000        0x0 /usr/local/mcuxpressoide-10.2.1_795/ide/tools/bin/../lib/gcc/arm-none-eabi/7.2.1/../../../../arm-none-eabi/lib/thumb/v7e-m/fpv4-sp/hard/libcr_c.a(errno.o)
 .bss           0x0000000000000000        0x0 /usr/local/mcuxpressoide-10.2.1_795/ide/tools/bin/../lib/gcc/arm-none-eabi/7.2.1/../../../../arm-none-eabi/lib/thumb/v7e-m/fpv4-sp/hard/libcr_c.a(errno.o)
 .text          0x0000000000000000        0x0 /usr/local/mcuxpressoide-10.2.1_795/ide/tools/bin/../lib/gcc/arm-none-eabi/7.2.1/../../../../arm-none-eabi/lib/thumb/v7e-m/fpv4-sp/hard/libcr_c.a(fclose.o)
 .data          0x0000000000000000        0x0 /usr/local/mcuxpressoide-10.2.1_795/ide/tools/bin/../lib/gcc/arm-none-eabi/7.2.1/../../../../arm-none-eabi/lib/thumb/v7e-m/fpv4-sp/hard/libcr_c.a(fclose.o)
 .bss           0x0000000000000000        0x0 /usr/local/mcuxpressoide-10.2.1_795/ide/tools/bin/../lib/gcc/arm-none-eabi/7.2.1/../../../../arm-none-eabi/lib/thumb/v7e-m/fpv4-sp/hard/libcr_c.a(fclose.o)
 .text          0x0000000000000000        0x0 /usr/local/mcuxpressoide-10.2.1_795/ide/tools/bin/../lib/gcc/arm-none-eabi/7.2.1/../../../../arm-none-eabi/lib/thumb/v7e-m/fpv4-sp/hard/libcr_c.a(fflush.o)
 .data          0x0000000000000000        0x0 /usr/local/mcuxpressoide-10.2.1_795/ide/tools/bin/../lib/gcc/arm-none-eabi/7.2.1/../../../../arm-none-eabi/lib/thumb/v7e-m/fpv4-sp/hard/libcr_c.a(fflush.o)
 .bss           0x0000000000000000        0x0 /usr/local/mcuxpressoide-10.2.1_795/ide/tools/bin/../lib/gcc/arm-none-eabi/7.2.1/../../../../arm-none-eabi/lib/thumb/v7e-m/fpv4-sp/hard/libcr_c.a(fflush.o)
 .text          0x0000000000000000        0x0 /usr/local/mcuxpressoide-10.2.1_795/ide/tools/bin/../lib/gcc/arm-none-eabi/7.2.1/../../../../arm-none-eabi/lib/thumb/v7e-m/fpv4-sp/hard/libcr_c.a(remove.o)
 .data          0x0000000000000000        0x0 /usr/local/mcuxpressoide-10.2.1_795/ide/tools/bin/../lib/gcc/arm-none-eabi/7.2.1/../../../../arm-none-eabi/lib/thumb/v7e-m/fpv4-sp/hard/libcr_c.a(remove.o)
 .bss           0x0000000000000000        0x0 /usr/local/mcuxpressoide-10.2.1_795/ide/tools/bin/../lib/gcc/arm-none-eabi/7.2.1/../../../../arm-none-eabi/lib/thumb/v7e-m/fpv4-sp/hard/libcr_c.a(remove.o)
 .text.rename   0x0000000000000000       0x28 /usr/local/mcuxpressoide-10.2.1_795/ide/tools/bin/../lib/gcc/arm-none-eabi/7.2.1/../../../../arm-none-eabi/lib/thumb/v7e-m/fpv4-sp/hard/libcr_c.a(remove.o)
 .text          0x0000000000000000        0x0 /usr/local/mcuxpressoide-10.2.1_795/ide/tools/bin/../lib/gcc/arm-none-eabi/7.2.1/../../../../arm-none-eabi/lib/thumb/v7e-m/fpv4-sp/hard/libcr_c.a(_cr_check_heap.o)
 .data          0x0000000000000000        0x0 /usr/local/mcuxpressoide-10.2.1_795/ide/tools/bin/../lib/gcc/arm-none-eabi/7.2.1/../../../../arm-none-eabi/lib/thumb/v7e-m/fpv4-sp/hard/libcr_c.a(_cr_check_heap.o)
 .bss           0x0000000000000000        0x0 /usr/local/mcuxpressoide-10.2.1_795/ide/tools/bin/../lib/gcc/arm-none-eabi/7.2.1/../../../../arm-none-eabi/lib/thumb/v7e-m/fpv4-sp/hard/libcr_c.a(_cr_check_heap.o)
 .text          0x0000000000000000        0x0 /usr/local/mcuxpressoide-10.2.1_795/ide/tools/bin/../lib/gcc/arm-none-eabi/7.2.1/../../../../arm-none-eabi/lib/thumb/v7e-m/fpv4-sp/hard/libcr_c.a(_do_fflush.o)
 .data          0x0000000000000000        0x0 /usr/local/mcuxpressoide-10.2.1_795/ide/tools/bin/../lib/gcc/arm-none-eabi/7.2.1/../../../../arm-none-eabi/lib/thumb/v7e-m/fpv4-sp/hard/libcr_c.a(_do_fflush.o)
 .bss           0x0000000000000000        0x0 /usr/local/mcuxpressoide-10.2.1_795/ide/tools/bin/../lib/gcc/arm-none-eabi/7.2.1/../../../../arm-none-eabi/lib/thumb/v7e-m/fpv4-sp/hard/libcr_c.a(_do_fflush.o)
 .text          0x0000000000000000        0x0 /usr/local/mcuxpressoide-10.2.1_795/ide/tools/bin/../lib/gcc/arm-none-eabi/7.2.1/thumb/v7e-m/fpv4-sp/hard/libcr_eabihelpers.a(memcpy.o)
 .data          0x0000000000000000        0x0 /usr/local/mcuxpressoide-10.2.1_795/ide/tools/bin/../lib/gcc/arm-none-eabi/7.2.1/thumb/v7e-m/fpv4-sp/hard/libcr_eabihelpers.a(memcpy.o)
 .bss           0x0000000000000000        0x0 /usr/local/mcuxpressoide-10.2.1_795/ide/tools/bin/../lib/gcc/arm-none-eabi/7.2.1/thumb/v7e-m/fpv4-sp/hard/libcr_eabihelpers.a(memcpy.o)
 .text.__aeabi_memmove
                0x0000000000000000       0x1c /usr/local/mcuxpressoide-10.2.1_795/ide/tools/bin/../lib/gcc/arm-none-eabi/7.2.1/thumb/v7e-m/fpv4-sp/hard/libcr_eabihelpers.a(memcpy.o)
 .text.__aeabi_memclr
                0x0000000000000000        0x8 /usr/local/mcuxpressoide-10.2.1_795/ide/tools/bin/../lib/gcc/arm-none-eabi/7.2.1/thumb/v7e-m/fpv4-sp/hard/libcr_eabihelpers.a(memcpy.o)
 .text.__aeabi_memset
                0x0000000000000000        0xa /usr/local/mcuxpressoide-10.2.1_795/ide/tools/bin/../lib/gcc/arm-none-eabi/7.2.1/thumb/v7e-m/fpv4-sp/hard/libcr_eabihelpers.a(memcpy.o)
 .text          0x0000000000000000        0x0 /usr/local/mcuxpressoide-10.2.1_795/ide/tools/bin/../lib/gcc/arm-none-eabi/7.2.1/../../../../arm-none-eabi/lib/thumb/v7e-m/fpv4-sp/hard/libcr_semihost_nf.a(__sys_close.o)
 .data          0x0000000000000000        0x0 /usr/local/mcuxpressoide-10.2.1_795/ide/tools/bin/../lib/gcc/arm-none-eabi/7.2.1/../../../../arm-none-eabi/lib/thumb/v7e-m/fpv4-sp/hard/libcr_semihost_nf.a(__sys_close.o)
 .bss           0x0000000000000000        0x0 /usr/local/mcuxpressoide-10.2.1_795/ide/tools/bin/../lib/gcc/arm-none-eabi/7.2.1/../../../../arm-none-eabi/lib/thumb/v7e-m/fpv4-sp/hard/libcr_semihost_nf.a(__sys_close.o)
 .text          0x0000000000000000        0x0 /usr/local/mcuxpressoide-10.2.1_795/ide/tools/bin/../lib/gcc/arm-none-eabi/7.2.1/../../../../arm-none-eabi/lib/thumb/v7e-m/fpv4-sp/hard/libcr_semihost_nf.a(__sys_flen.o)
 .data          0x0000000000000000        0x0 /usr/local/mcuxpressoide-10.2.1_795/ide/tools/bin/../lib/gcc/arm-none-eabi/7.2.1/../../../../arm-none-eabi/lib/thumb/v7e-m/fpv4-sp/hard/libcr_semihost_nf.a(__sys_flen.o)
 .bss           0x0000000000000000        0x0 /usr/local/mcuxpressoide-10.2.1_795/ide/tools/bin/../lib/gcc/arm-none-eabi/7.2.1/../../../../arm-none-eabi/lib/thumb/v7e-m/fpv4-sp/hard/libcr_semihost_nf.a(__sys_flen.o)
 .text          0x0000000000000000        0x0 /usr/local/mcuxpressoide-10.2.1_795/ide/tools/bin/../lib/gcc/arm-none-eabi/7.2.1/../../../../arm-none-eabi/lib/thumb/v7e-m/fpv4-sp/hard/libcr_semihost_nf.a(__sys_istty.o)
 .data          0x0000000000000000        0x0 /usr/local/mcuxpressoide-10.2.1_795/ide/tools/bin/../lib/gcc/arm-none-eabi/7.2.1/../../../../arm-none-eabi/lib/thumb/v7e-m/fpv4-sp/hard/libcr_semihost_nf.a(__sys_istty.o)
 .bss           0x0000000000000000        0x0 /usr/local/mcuxpressoide-10.2.1_795/ide/tools/bin/../lib/gcc/arm-none-eabi/7.2.1/../../../../arm-none-eabi/lib/thumb/v7e-m/fpv4-sp/hard/libcr_semihost_nf.a(__sys_istty.o)
 .text          0x0000000000000000        0x0 /usr/local/mcuxpressoide-10.2.1_795/ide/tools/bin/../lib/gcc/arm-none-eabi/7.2.1/../../../../arm-none-eabi/lib/thumb/v7e-m/fpv4-sp/hard/libcr_semihost_nf.a(__sys_remove.o)
 .data          0x0000000000000000        0x0 /usr/local/mcuxpressoide-10.2.1_795/ide/tools/bin/../lib/gcc/arm-none-eabi/7.2.1/../../../../arm-none-eabi/lib/thumb/v7e-m/fpv4-sp/hard/libcr_semihost_nf.a(__sys_remove.o)
 .bss           0x0000000000000000        0x0 /usr/local/mcuxpressoide-10.2.1_795/ide/tools/bin/../lib/gcc/arm-none-eabi/7.2.1/../../../../arm-none-eabi/lib/thumb/v7e-m/fpv4-sp/hard/libcr_semihost_nf.a(__sys_remove.o)
 .text          0x0000000000000000        0x0 /usr/local/mcuxpressoide-10.2.1_795/ide/tools/bin/../lib/gcc/arm-none-eabi/7.2.1/../../../../arm-none-eabi/lib/thumb/v7e-m/fpv4-sp/hard/libcr_semihost_nf.a(__sys_rename.o)
 .data          0x0000000000000000        0x0 /usr/local/mcuxpressoide-10.2.1_795/ide/tools/bin/../lib/gcc/arm-none-eabi/7.2.1/../../../../arm-none-eabi/lib/thumb/v7e-m/fpv4-sp/hard/libcr_semihost_nf.a(__sys_rename.o)
 .bss           0x0000000000000000        0x0 /usr/local/mcuxpressoide-10.2.1_795/ide/tools/bin/../lib/gcc/arm-none-eabi/7.2.1/../../../../arm-none-eabi/lib/thumb/v7e-m/fpv4-sp/hard/libcr_semihost_nf.a(__sys_rename.o)
 .text.__sys_rename
                0x0000000000000000        0xc /usr/local/mcuxpressoide-10.2.1_795/ide/tools/bin/../lib/gcc/arm-none-eabi/7.2.1/../../../../arm-none-eabi/lib/thumb/v7e-m/fpv4-sp/hard/libcr_semihost_nf.a(__sys_rename.o)
 .ARM.attributes
                0x0000000000000000       0x25 /usr/local/mcuxpressoide-10.2.1_795/ide/tools/bin/../lib/gcc/arm-none-eabi/7.2.1/../../../../arm-none-eabi/lib/thumb/v7e-m/fpv4-sp/hard/libcr_semihost_nf.a(__sys_rename.o)
 .text          0x0000000000000000        0x0 /usr/local/mcuxpressoide-10.2.1_795/ide/tools/bin/../lib/gcc/arm-none-eabi/7.2.1/../../../../arm-none-eabi/lib/thumb/v7e-m/fpv4-sp/hard/libcr_semihost_nf.a(__sys_seek.o)
 .data          0x0000000000000000        0x0 /usr/local/mcuxpressoide-10.2.1_795/ide/tools/bin/../lib/gcc/arm-none-eabi/7.2.1/../../../../arm-none-eabi/lib/thumb/v7e-m/fpv4-sp/hard/libcr_semihost_nf.a(__sys_seek.o)
 .bss           0x0000000000000000        0x0 /usr/local/mcuxpressoide-10.2.1_795/ide/tools/bin/../lib/gcc/arm-none-eabi/7.2.1/../../../../arm-none-eabi/lib/thumb/v7e-m/fpv4-sp/hard/libcr_semihost_nf.a(__sys_seek.o)
 .text          0x0000000000000000        0x0 /usr/local/mcuxpressoide-10.2.1_795/ide/tools/bin/../lib/gcc/arm-none-eabi/7.2.1/../../../../arm-none-eabi/lib/thumb/v7e-m/fpv4-sp/hard/libcr_semihost_nf.a(__sys_tmpnam.o)
 .data          0x0000000000000000        0x0 /usr/local/mcuxpressoide-10.2.1_795/ide/tools/bin/../lib/gcc/arm-none-eabi/7.2.1/../../../../arm-none-eabi/lib/thumb/v7e-m/fpv4-sp/hard/libcr_semihost_nf.a(__sys_tmpnam.o)
 .bss           0x0000000000000000        0x0 /usr/local/mcuxpressoide-10.2.1_795/ide/tools/bin/../lib/gcc/arm-none-eabi/7.2.1/../../../../arm-none-eabi/lib/thumb/v7e-m/fpv4-sp/hard/libcr_semihost_nf.a(__sys_tmpnam.o)
 .text          0x0000000000000000        0x0 /usr/local/mcuxpressoide-10.2.1_795/ide/tools/bin/../lib/gcc/arm-none-eabi/7.2.1/../../../../arm-none-eabi/lib/thumb/v7e-m/fpv4-sp/hard/libcr_semihost_nf.a(__sys_write.o)
 .data          0x0000000000000000        0x0 /usr/local/mcuxpressoide-10.2.1_795/ide/tools/bin/../lib/gcc/arm-none-eabi/7.2.1/../../../../arm-none-eabi/lib/thumb/v7e-m/fpv4-sp/hard/libcr_semihost_nf.a(__sys_write.o)
 .bss           0x0000000000000000        0x0 /usr/local/mcuxpressoide-10.2.1_795/ide/tools/bin/../lib/gcc/arm-none-eabi/7.2.1/../../../../arm-none-eabi/lib/thumb/v7e-m/fpv4-sp/hard/libcr_semihost_nf.a(__sys_write.o)

Memory Configuration

Name             Origin             Length             Attributes
PROGRAM_FLASH    0x0000000000000000 0x0000000000080000 xr
SRAM_UPPER       0x0000000020000000 0x0000000000010000 xrw
SRAM_LOWER       0x000000001fff0000 0x0000000000010000 xrw
*default*        0x0000000000000000 0xffffffffffffffff

Linker script and memory map

LOAD ./utilities/fsl_assert.o
LOAD ./utilities/fsl_debug_console.o
LOAD ./utilities/fsl_io.o
LOAD ./utilities/fsl_log.o
LOAD ./utilities/fsl_str.o
LOAD ./usb/device/source/khci/usb_device_khci.o
LOAD ./usb/device/source/usb_device_ch9.o
LOAD ./usb/device/source/usb_device_dci.o
LOAD ./usb/device/class/audio/usb_device_audio.o
LOAD ./usb/device/class/usb_device_class.o
LOAD ./startup/startup_mk22f51212.o
LOAD ./sources/audio_speaker.o
LOAD ./sources/usb_device_descriptor.o
LOAD ./source/semihost_hardfault.o
LOAD ./osa/usb_osa_bm.o
LOAD ./drivers/fsl_clock.o
LOAD ./drivers/fsl_common.o
LOAD ./drivers/fsl_dmamux.o
LOAD ./drivers/fsl_edma.o
LOAD ./drivers/fsl_ftfx_cache.o
LOAD ./drivers/fsl_ftfx_controller.o
LOAD ./drivers/fsl_ftfx_flash.o
LOAD ./drivers/fsl_ftfx_flexnvm.o
LOAD ./drivers/fsl_gpio.o
LOAD ./drivers/fsl_i2c.o
LOAD ./drivers/fsl_lpuart.o
LOAD ./drivers/fsl_sai.o
LOAD ./drivers/fsl_sai_edma.o
LOAD ./drivers/fsl_sim.o
LOAD ./drivers/fsl_smc.o
LOAD ./drivers/fsl_uart.o
LOAD ./codec/fsl_codec_common.o
LOAD ./codec/fsl_sgtl5000.o
LOAD ./board/src/board.o
LOAD ./board/src/clock_config.o
LOAD ./board/src/pin_mux.o
LOAD ./board/peripherals.o
LOAD ./CMSIS/system_MK22F51212.o
START GROUP
LOAD /usr/local/mcuxpressoide-10.2.1_795/ide/tools/bin/../lib/gcc/arm-none-eabi/7.2.1/../../../../arm-none-eabi/lib/thumb/v7e-m/fpv4-sp/hard/libcr_semihost_nf.a
LOAD /usr/local/mcuxpressoide-10.2.1_795/ide/tools/bin/../lib/gcc/arm-none-eabi/7.2.1/../../../../arm-none-eabi/lib/thumb/v7e-m/fpv4-sp/hard/libcr_c.a
LOAD /usr/local/mcuxpressoide-10.2.1_795/ide/tools/bin/../lib/gcc/arm-none-eabi/7.2.1/thumb/v7e-m/fpv4-sp/hard/libcr_eabihelpers.a
END GROUP
                0x0000000000000000                __base_PROGRAM_FLASH = 0x0
                0x0000000000000000                __base_Flash = 0x0
                0x0000000000080000                __top_PROGRAM_FLASH = 0x80000
                0x0000000000080000                __top_Flash = 0x80000
                0x0000000020000000                __base_SRAM_UPPER = 0x20000000
                0x0000000020000000                __base_RAM = 0x20000000
                0x0000000020010000                __top_SRAM_UPPER = 0x20010000
                0x0000000020010000                __top_RAM = 0x20010000
                0x000000001fff0000                __base_SRAM_LOWER = 0x1fff0000
                0x000000001fff0000                __base_RAM2 = 0x1fff0000
                0x0000000020000000                __top_SRAM_LOWER = 0x20000000
                0x0000000020000000                __top_RAM2 = 0x20000000

.text           0x0000000000000000     0xe2c0
 FILL mask 0xff
                0x0000000000000000                __vectors_start__ = ABSOLUTE (.)
 *(SORT_BY_ALIGNMENT(.isr_vector))
 .isr_vector    0x0000000000000000      0x168 ./startup/startup_mk22f51212.o
                0x0000000000000000                __Vectors
                0x0000000000000000                g_pfnVectors
                0x0000000000000168                . = ALIGN (0x4)
                0x0000000000000168                __section_table_start = .
                0x0000000000000168                __data_section_table = .
                0x0000000000000168        0x4 LONG 0xe2c0 LOADADDR (.data)
                0x000000000000016c        0x4 LONG 0x20000000 ADDR (.data)
                0x0000000000000170        0x4 LONG 0x23c SIZEOF (.data)
                0x0000000000000174        0x4 LONG 0xe2c0 LOADADDR (.data_RAM2)
                0x0000000000000178        0x4 LONG 0x1fff0000 ADDR (.data_RAM2)
                0x000000000000017c        0x4 LONG 0x0 SIZEOF (.data_RAM2)
                0x0000000000000180                __data_section_table_end = .
                0x0000000000000180                __bss_section_table = .
                0x0000000000000180        0x4 LONG 0x20000400 ADDR (.bss)
                0x0000000000000184        0x4 LONG 0x1fa0 SIZEOF (.bss)
                0x0000000000000188        0x4 LONG 0x1fff0000 ADDR (.bss_RAM2)
                0x000000000000018c        0x4 LONG 0x0 SIZEOF (.bss_RAM2)
                0x0000000000000190                __bss_section_table_end = .
                0x0000000000000190                __section_table_end = .
 *(SORT_BY_ALIGNMENT(.after_vectors*))
 .after_vectors.reset
                0x0000000000000190       0x4c ./startup/startup_mk22f51212.o
                0x0000000000000190                ResetISR
 .after_vectors.init_data
                0x00000000000001dc       0x1e ./startup/startup_mk22f51212.o
                0x00000000000001dc                data_init
 .after_vectors.init_bss
                0x00000000000001fa       0x12 ./startup/startup_mk22f51212.o
                0x00000000000001fa                bss_init
 .after_vectors
                0x000000000000020c       0x14 ./startup/startup_mk22f51212.o
                0x000000000000020c                NMI_Handler
                0x0000000000000210                MemManage_Handler
                0x0000000000000212                BusFault_Handler
                0x0000000000000214                UsageFault_Handler
                0x0000000000000216                SVC_Handler
                0x0000000000000218                DebugMon_Handler
                0x000000000000021a                PendSV_Handler
                0x000000000000021c                SysTick_Handler
                0x000000000000021e                PORTB_DriverIRQHandler
                0x000000000000021e                SPI1_DriverIRQHandler
                0x000000000000021e                LPTMR0_DriverIRQHandler
                0x000000000000021e                DMA_Error_DriverIRQHandler
                0x000000000000021e                FTM1_DriverIRQHandler
                0x000000000000021e                FTM2_DriverIRQHandler
                0x000000000000021e                PIT2_DriverIRQHandler
                0x000000000000021e                Reserved82_DriverIRQHandler
                0x000000000000021e                RTC_Seconds_DriverIRQHandler
                0x000000000000021e                FTF_DriverIRQHandler
                0x000000000000021e                LLWU_DriverIRQHandler
                0x000000000000021e                MCM_DriverIRQHandler
                0x000000000000021e                MCG_DriverIRQHandler
                0x000000000000021e                DAC1_DriverIRQHandler
                0x000000000000021e                CMP1_DriverIRQHandler
                0x000000000000021e                FTM0_DriverIRQHandler
                0x000000000000021e                IntDefaultHandler
                0x000000000000021e                USB0_DriverIRQHandler
                0x000000000000021e                PORTC_DriverIRQHandler
                0x000000000000021e                DAC0_DriverIRQHandler
                0x000000000000021e                UART2_ERR_DriverIRQHandler
                0x000000000000021e                LVD_LVW_DriverIRQHandler
                0x000000000000021e                Reserved84_DriverIRQHandler
                0x000000000000021e                PIT0_DriverIRQHandler
                0x000000000000021e                RNG_DriverIRQHandler
                0x000000000000021e                Reserved53_DriverIRQHandler
                0x000000000000021e                UART0_ERR_DriverIRQHandler
                0x000000000000021e                Reserved71_DriverIRQHandler
                0x000000000000021e                ADC1_DriverIRQHandler
                0x000000000000021e                PORTA_DriverIRQHandler
                0x000000000000021e                PIT3_DriverIRQHandler
                0x000000000000021e                PIT1_DriverIRQHandler
                0x000000000000021e                WDOG_EWM_DriverIRQHandler
                0x000000000000021e                PDB0_DriverIRQHandler
                0x000000000000021e                Reserved83_DriverIRQHandler
                0x000000000000021e                Reserved61_DriverIRQHandler
                0x000000000000021e                RTC_DriverIRQHandler
                0x000000000000021e                Read_Collision_DriverIRQHandler
                0x000000000000021e                Reserved54_DriverIRQHandler
                0x000000000000021e                SWI_DriverIRQHandler
                0x000000000000021e                Reserved85_DriverIRQHandler
                0x000000000000021e                Reserved81_DriverIRQHandler
                0x000000000000021e                SPI0_DriverIRQHandler
                0x000000000000021e                ADC0_DriverIRQHandler
                0x000000000000021e                CMP0_DriverIRQHandler
                0x000000000000021e                FTM3_DriverIRQHandler
                0x000000000000021e                UART1_ERR_DriverIRQHandler
                0x000000000000021e                PORTD_DriverIRQHandler
                0x000000000000021e                Reserved70_DriverIRQHandler
                0x000000000000021e                Reserved86_DriverIRQHandler
                0x000000000000021e                PORTE_DriverIRQHandler
                0x0000000000000400                . = 0x400
 *fill*         0x0000000000000220      0x1e0 ff
                0x0000000000000400                PROVIDE (__FLASH_CONFIG_START__, .)
 *(SORT_BY_ALIGNMENT(.FlashConfig))
 .FlashConfig   0x0000000000000400       0x10 ./startup/startup_mk22f51212.o
                0x0000000000000400                Flash_Config
                0x0000000000000410                PROVIDE (__FLASH_CONFIG_END__, .)
                0x0000000000000001                ASSERT (! ((__FLASH_CONFIG_START__ == __FLASH_CONFIG_END__)), Linker Flash Config Support Enabled, but no .FlashConfig section provided within application)
 *(SORT_BY_ALIGNMENT(.text*))
 .text.DbgConsole_Init
                0x0000000000000410       0x38 ./utilities/fsl_debug_console.o
                0x0000000000000410                DbgConsole_Init
 .text.IO_Init  0x0000000000000448       0xbc ./utilities/fsl_io.o
                0x0000000000000448                IO_Init
 .text.USB_DeviceKhciEndpointTransfer
                0x0000000000000504      0x104 ./usb/device/source/khci/usb_device_khci.o
 .text.USB_DeviceKhciInit
                0x0000000000000608       0xd4 ./usb/device/source/khci/usb_device_khci.o
                0x0000000000000608                USB_DeviceKhciInit
 .text.USB_DeviceKhciControl
                0x00000000000006dc      0x2a8 ./usb/device/source/khci/usb_device_khci.o
                0x00000000000006dc                USB_DeviceKhciControl
 .text.USB_DeviceControlCallback
                0x0000000000000984      0x370 ./usb/device/source/usb_device_ch9.o
                0x0000000000000984                USB_DeviceControlCallback
 .text.USB_DeviceControlPipeInit
                0x0000000000000cf4       0x78 ./usb/device/source/usb_device_ch9.o
                0x0000000000000cf4                USB_DeviceControlPipeInit
 .text.USB_DeviceAllocateHandle
                0x0000000000000d6c       0xd0 ./usb/device/source/usb_device_dci.o
 .text.USB_DeviceGetControllerInterface
                0x0000000000000e3c       0x38 ./usb/device/source/usb_device_dci.o
 .text.USB_DeviceGetStatus
                0x0000000000000e74       0xcc ./usb/device/source/usb_device_dci.o
                0x0000000000000e74                USB_DeviceGetStatus
 .text.USB_DeviceSetStatus
                0x0000000000000f40      0x108 ./usb/device/source/usb_device_dci.o
                0x0000000000000f40                USB_DeviceSetStatus
 .text.USB_DeviceAudioAllocateHandle
                0x0000000000001048       0x6c ./usb/device/class/audio/usb_device_audio.o
 .text.USB_DeviceAudioStreamEndpointsInit
                0x00000000000010b4      0x1c8 ./usb/device/class/audio/usb_device_audio.o
                0x00000000000010b4                USB_DeviceAudioStreamEndpointsInit
 .text.USB_DeviceAudioControlEndpointsInit
                0x000000000000127c      0x1bc ./usb/device/class/audio/usb_device_audio.o
                0x000000000000127c                USB_DeviceAudioControlEndpointsInit
 .text.USB_DeviceAudioGetCurAudioFeatureUnit
                0x0000000000001438       0xdc ./usb/device/class/audio/usb_device_audio.o
                0x0000000000001438                USB_DeviceAudioGetCurAudioFeatureUnit
 .text.USB_DeviceAudioGetMinAudioFeatureUnit
                0x0000000000001514       0xb0 ./usb/device/class/audio/usb_device_audio.o
                0x0000000000001514                USB_DeviceAudioGetMinAudioFeatureUnit
 .text.USB_DeviceAudioGetMaxAudioFeatureUnit
                0x00000000000015c4       0xb0 ./usb/device/class/audio/usb_device_audio.o
                0x00000000000015c4                USB_DeviceAudioGetMaxAudioFeatureUnit
 .text.USB_DeviceAudioGetResAudioFeatureUnit
                0x0000000000001674       0xb0 ./usb/device/class/audio/usb_device_audio.o
                0x0000000000001674                USB_DeviceAudioGetResAudioFeatureUnit
 .text.USB_DeviceAudioSetCurAudioFeatureUnit
                0x0000000000001724       0xdc ./usb/device/class/audio/usb_device_audio.o
                0x0000000000001724                USB_DeviceAudioSetCurAudioFeatureUnit
 .text.USB_DeviceAudioSetMinAudioFeatureUnit
                0x0000000000001800       0xb0 ./usb/device/class/audio/usb_device_audio.o
                0x0000000000001800                USB_DeviceAudioSetMinAudioFeatureUnit
 .text.USB_DeviceAudioSetMaxAudioFeatureUnit
                0x00000000000018b0       0xb0 ./usb/device/class/audio/usb_device_audio.o
                0x00000000000018b0                USB_DeviceAudioSetMaxAudioFeatureUnit
 .text.USB_DeviceAudioSetResAudioFeatureUnit
                0x0000000000001960       0xb0 ./usb/device/class/audio/usb_device_audio.o
                0x0000000000001960                USB_DeviceAudioSetResAudioFeatureUnit
 .text.USB_DeviceAudioSetFeatureUnit
                0x0000000000001a10       0x74 ./usb/device/class/audio/usb_device_audio.o
                0x0000000000001a10                USB_DeviceAudioSetFeatureUnit
 .text.USB_DeviceAudioSetRequestEndpoint
                0x0000000000001a84       0xcc ./usb/device/class/audio/usb_device_audio.o
                0x0000000000001a84                USB_DeviceAudioSetRequestEndpoint
 .text.USB_DeviceAudioGetRequestEndpoint
                0x0000000000001b50       0xc0 ./usb/device/class/audio/usb_device_audio.o
                0x0000000000001b50                USB_DeviceAudioGetRequestEndpoint
 .text.USB_DeviceAudioGetFeatureUnit
                0x0000000000001c10       0x74 ./usb/device/class/audio/usb_device_audio.o
                0x0000000000001c10                USB_DeviceAudioGetFeatureUnit
 .text.USB_DeviceAudioEvent
                0x0000000000001c84      0x3a8 ./usb/device/class/audio/usb_device_audio.o
                0x0000000000001c84                USB_DeviceAudioEvent
 .text.USB_DeviceClassAllocateHandle
                0x000000000000202c       0xc8 ./usb/device/class/usb_device_class.o
 .text.USB_DeviceClassFreeHandle
                0x00000000000020f4       0x90 ./usb/device/class/usb_device_class.o
 .text.USB_DeviceClassGetHandleByDeviceHandle
                0x0000000000002184       0x64 ./usb/device/class/usb_device_class.o
 .text.USB_DeviceClassGetDeviceHandle
                0x00000000000021e8       0x78 ./usb/device/class/usb_device_class.o
                0x00000000000021e8                USB_DeviceClassGetDeviceHandle
 .text.USB_DeviceClassEvent
                0x0000000000002260       0xe0 ./usb/device/class/usb_device_class.o
                0x0000000000002260                USB_DeviceClassEvent
 .text.USB_DeviceClassInit
                0x0000000000002340      0x11c ./usb/device/class/usb_device_class.o
                0x0000000000002340                USB_DeviceClassInit
 .text.__NVIC_EnableIRQ
                0x000000000000245c       0x3c ./sources/audio_speaker.o
 .text.__NVIC_SetPriority
                0x0000000000002498       0x54 ./sources/audio_speaker.o
 .text.PORT_SetPinConfig
                0x00000000000024ec       0x38 ./sources/audio_speaker.o
 .text.DMAMUX_EnableChannel
                0x0000000000002524       0x3c ./sources/audio_speaker.o
 .text.DMAMUX_SetSource
                0x0000000000002560       0x4c ./sources/audio_speaker.o
 .text.BOARD_I2C_ReleaseBus
                0x00000000000025ac       0xf8 ./sources/audio_speaker.o
                0x00000000000025ac                BOARD_I2C_ReleaseBus
 .text.BOARD_Codec_Init
                0x00000000000026a4       0x48 ./sources/audio_speaker.o
                0x00000000000026a4                BOARD_Codec_Init
 .text.SAI_USB_Audio_TxInit
                0x00000000000026ec       0x30 ./sources/audio_speaker.o
                0x00000000000026ec                SAI_USB_Audio_TxInit
 .text.SGTL_Config_Audio_Formats
                0x000000000000271c       0x4c ./sources/audio_speaker.o
                0x000000000000271c                SGTL_Config_Audio_Formats
 .text.BOARD_USB_Audio_TxInit
                0x0000000000002768       0x20 ./sources/audio_speaker.o
                0x0000000000002768                BOARD_USB_Audio_TxInit
 .text.txCallback
                0x0000000000002788       0xb4 ./sources/audio_speaker.o
 .text.BOARD_DMA_EDMA_Config
                0x000000000000283c       0x54 ./sources/audio_speaker.o
                0x000000000000283c                BOARD_DMA_EDMA_Config
 .text.BOARD_Create_Audio_DMA_EDMA_Handle
                0x0000000000002890       0x2c ./sources/audio_speaker.o
                0x0000000000002890                BOARD_Create_Audio_DMA_EDMA_Handle
 .text.BOARD_DMA_EDMA_Set_AudioFormat
                0x00000000000028bc       0x38 ./sources/audio_speaker.o
                0x00000000000028bc                BOARD_DMA_EDMA_Set_AudioFormat
 .text.BOARD_DMA_EDMA_Enable_Audio_Interrupts
                0x00000000000028f4       0x1c ./sources/audio_speaker.o
                0x00000000000028f4                BOARD_DMA_EDMA_Enable_Audio_Interrupts
 .text.BOARD_DMA_EDMA_Start
                0x0000000000002910       0x40 ./sources/audio_speaker.o
                0x0000000000002910                BOARD_DMA_EDMA_Start
 .text.I2S0_Tx_IRQHandler
                0x0000000000002950       0x24 ./sources/audio_speaker.o
                0x0000000000002950                I2S0_Tx_IRQHandler
 .text.USB0_IRQHandler
                0x0000000000002974       0x1c ./sources/audio_speaker.o
                0x0000000000002974                USB0_IRQHandler
 .text.USB_DeviceClockInit
                0x0000000000002990       0x1c ./sources/audio_speaker.o
                0x0000000000002990                USB_DeviceClockInit
 .text.Init_Board_Sai_Codec
                0x00000000000029ac       0x38 ./sources/audio_speaker.o
                0x00000000000029ac                Init_Board_Sai_Codec
 .text.USB_DeviceAudioRequest
                0x00000000000029e4      0x72c ./sources/audio_speaker.o
                0x00000000000029e4                USB_DeviceAudioRequest
 .text.USB_AudioSpeakerBufferSpaceUsed
                0x0000000000003110       0x44 ./sources/audio_speaker.o
                0x0000000000003110                USB_AudioSpeakerBufferSpaceUsed
 .text.USB_AudioFeedbackDataUpdate
                0x0000000000003154       0xec ./sources/audio_speaker.o
                0x0000000000003154                USB_AudioFeedbackDataUpdate
 .text.USB_AudioSpeakerPutBuffer
                0x0000000000003240       0x58 ./sources/audio_speaker.o
                0x0000000000003240                USB_AudioSpeakerPutBuffer
 .text.USB_DeviceAudioCallback
                0x0000000000003298      0x124 ./sources/audio_speaker.o
                0x0000000000003298                USB_DeviceAudioCallback
 .text.USB_DeviceAudioSpeakerStatusReset
                0x00000000000033bc       0x64 ./sources/audio_speaker.o
                0x00000000000033bc                USB_DeviceAudioSpeakerStatusReset
 .text.USB_DeviceCallback
                0x0000000000003420      0x1d4 ./sources/audio_speaker.o
                0x0000000000003420                USB_DeviceCallback
 .text.APPInit  0x00000000000035f4       0x6c ./sources/audio_speaker.o
                0x00000000000035f4                APPInit
 .text.USB_AudioCodecTask
                0x0000000000003660       0x90 ./sources/audio_speaker.o
                0x0000000000003660                USB_AudioCodecTask
 .text.USB_AudioSpeakerResetTask
                0x00000000000036f0       0x18 ./sources/audio_speaker.o
                0x00000000000036f0                USB_AudioSpeakerResetTask
 .text.USB_DeviceGetDeviceDescriptor
                0x0000000000003708       0x28 ./sources/usb_device_descriptor.o
                0x0000000000003708                USB_DeviceGetDeviceDescriptor
 .text.USB_DeviceGetConfigurationDescriptor
                0x0000000000003730       0x34 ./sources/usb_device_descriptor.o
                0x0000000000003730                USB_DeviceGetConfigurationDescriptor
 .text.USB_DeviceGetStringDescriptor
                0x0000000000003764       0xc0 ./sources/usb_device_descriptor.o
                0x0000000000003764                USB_DeviceGetStringDescriptor
 .text.CLOCK_SetEr32kClock
                0x0000000000003824       0x30 ./drivers/fsl_clock.o
 .text.CLOCK_SetPllFllSelClock
                0x0000000000003854       0x3c ./drivers/fsl_clock.o
 .text.CLOCK_GetMcgExtClkFreq
                0x0000000000003890       0x78 ./drivers/fsl_clock.o
 .text.CLOCK_GetFllExtRefClkFreq
                0x0000000000003908       0xd0 ./drivers/fsl_clock.o
 .text.CLOCK_GetInternalRefClkSelectFreq
                0x00000000000039d8       0x44 ./drivers/fsl_clock.o
 .text.CLOCK_GetFllRefClkFreq
                0x0000000000003a1c       0x2c ./drivers/fsl_clock.o
 .text.CLOCK_GetOscRangeFromFreq
                0x0000000000003a48       0x3c ./drivers/fsl_clock.o
 .text.CLOCK_GetOsc0ErClkUndivFreq
                0x0000000000003a84       0x38 ./drivers/fsl_clock.o
                0x0000000000003a84                CLOCK_GetOsc0ErClkUndivFreq
 .text.CLOCK_GetOsc0ErClkDivFreq
                0x0000000000003abc       0x48 ./drivers/fsl_clock.o
                0x0000000000003abc                CLOCK_GetOsc0ErClkDivFreq
 .text.CLOCK_GetEr32kClkFreq
                0x0000000000003b04       0x70 ./drivers/fsl_clock.o
                0x0000000000003b04                CLOCK_GetEr32kClkFreq
 .text.CLOCK_GetPllFllSelClkFreq
                0x0000000000003b74       0x54 ./drivers/fsl_clock.o
                0x0000000000003b74                CLOCK_GetPllFllSelClkFreq
 .text.CLOCK_GetCoreSysClkFreq
                0x0000000000003bc8       0x28 ./drivers/fsl_clock.o
                0x0000000000003bc8                CLOCK_GetCoreSysClkFreq
 .text.CLOCK_GetFreq
                0x0000000000003bf0      0x150 ./drivers/fsl_clock.o
                0x0000000000003bf0                CLOCK_GetFreq
 .text.CLOCK_SetSimConfig
                0x0000000000003d40       0x38 ./drivers/fsl_clock.o
                0x0000000000003d40                CLOCK_SetSimConfig
 .text.CLOCK_EnableUsbfs0Clock
                0x0000000000003d78      0x100 ./drivers/fsl_clock.o
                0x0000000000003d78                CLOCK_EnableUsbfs0Clock
 .text.CLOCK_GetOutClkFreq
                0x0000000000003e78       0x64 ./drivers/fsl_clock.o
                0x0000000000003e78                CLOCK_GetOutClkFreq
 .text.CLOCK_GetFllFreq
                0x0000000000003edc       0x7c ./drivers/fsl_clock.o
                0x0000000000003edc                CLOCK_GetFllFreq
 .text.CLOCK_GetInternalRefClkFreq
                0x0000000000003f58       0x24 ./drivers/fsl_clock.o
                0x0000000000003f58                CLOCK_GetInternalRefClkFreq
 .text.CLOCK_GetPll0Freq
                0x0000000000003f7c       0x68 ./drivers/fsl_clock.o
                0x0000000000003f7c                CLOCK_GetPll0Freq
 .text.CLOCK_SetExternalRefClkConfig
                0x0000000000003fe4       0x6c ./drivers/fsl_clock.o
                0x0000000000003fe4                CLOCK_SetExternalRefClkConfig
 .text.CLOCK_SetInternalRefClkConfig
                0x0000000000004050      0x104 ./drivers/fsl_clock.o
                0x0000000000004050                CLOCK_SetInternalRefClkConfig
 .text.CLOCK_EnablePll0
                0x0000000000004154       0x84 ./drivers/fsl_clock.o
                0x0000000000004154                CLOCK_EnablePll0
 .text.CLOCK_InitOsc0
                0x00000000000041d8       0x8c ./drivers/fsl_clock.o
                0x00000000000041d8                CLOCK_InitOsc0
 .text.CLOCK_SetPbeMode
                0x0000000000004264       0xa8 ./drivers/fsl_clock.o
                0x0000000000004264                CLOCK_SetPbeMode
 .text.CLOCK_BootToPeeMode
                0x000000000000430c       0x64 ./drivers/fsl_clock.o
                0x000000000000430c                CLOCK_BootToPeeMode
 .text.DMAMUX_GetInstance
                0x0000000000004370       0x44 ./drivers/fsl_dmamux.o
 .text.DMAMUX_Init
                0x00000000000043b4       0x24 ./drivers/fsl_dmamux.o
                0x00000000000043b4                DMAMUX_Init
 .text.__NVIC_EnableIRQ
                0x00000000000043d8       0x3c ./drivers/fsl_edma.o
 .text.EDMA_GetInstance
                0x0000000000004414       0x44 ./drivers/fsl_edma.o
 .text.EDMA_InstallTCD
                0x0000000000004458      0x148 ./drivers/fsl_edma.o
                0x0000000000004458                EDMA_InstallTCD
 .text.EDMA_Init
                0x00000000000045a0       0x80 ./drivers/fsl_edma.o
                0x00000000000045a0                EDMA_Init
 .text.EDMA_GetDefaultConfig
                0x0000000000004620       0x38 ./drivers/fsl_edma.o
                0x0000000000004620                EDMA_GetDefaultConfig
 .text.EDMA_SetTransferConfig
                0x0000000000004658       0x60 ./drivers/fsl_edma.o
                0x0000000000004658                EDMA_SetTransferConfig
 .text.EDMA_TcdReset
                0x00000000000046b8       0x78 ./drivers/fsl_edma.o
                0x00000000000046b8                EDMA_TcdReset
 .text.EDMA_TcdSetTransferConfig
                0x0000000000004730       0xe8 ./drivers/fsl_edma.o
                0x0000000000004730                EDMA_TcdSetTransferConfig
 .text.Get_StartInstance
                0x0000000000004818       0x24 ./drivers/fsl_edma.o
 .text.EDMA_CreateHandle
                0x000000000000483c       0xe4 ./drivers/fsl_edma.o
                0x000000000000483c                EDMA_CreateHandle
 .text.EDMA_InstallTCDMemory
                0x0000000000004920       0x60 ./drivers/fsl_edma.o
                0x0000000000004920                EDMA_InstallTCDMemory
 .text.EDMA_SetCallback
                0x0000000000004980       0x30 ./drivers/fsl_edma.o
                0x0000000000004980                EDMA_SetCallback
 .text.EDMA_PrepareTransfer
                0x00000000000049b0      0x288 ./drivers/fsl_edma.o
                0x00000000000049b0                EDMA_PrepareTransfer
 .text.EDMA_SubmitTransfer
                0x0000000000004c38      0x2c4 ./drivers/fsl_edma.o
                0x0000000000004c38                EDMA_SubmitTransfer
 .text.EDMA_StartTransfer
                0x0000000000004efc       0xac ./drivers/fsl_edma.o
                0x0000000000004efc                EDMA_StartTransfer
 .text.EDMA_HandleIRQ
                0x0000000000004fa8      0x144 ./drivers/fsl_edma.o
                0x0000000000004fa8                EDMA_HandleIRQ
 .text.DMA0_DriverIRQHandler
                0x00000000000050ec       0x1c ./drivers/fsl_edma.o
                0x00000000000050ec                DMA0_DriverIRQHandler
 .text.DMA1_DriverIRQHandler
                0x0000000000005108       0x1c ./drivers/fsl_edma.o
                0x0000000000005108                DMA1_DriverIRQHandler
 .text.DMA2_DriverIRQHandler
                0x0000000000005124       0x1c ./drivers/fsl_edma.o
                0x0000000000005124                DMA2_DriverIRQHandler
 .text.DMA3_DriverIRQHandler
                0x0000000000005140       0x1c ./drivers/fsl_edma.o
                0x0000000000005140                DMA3_DriverIRQHandler
 .text.DMA4_DriverIRQHandler
                0x000000000000515c       0x1c ./drivers/fsl_edma.o
                0x000000000000515c                DMA4_DriverIRQHandler
 .text.DMA5_DriverIRQHandler
                0x0000000000005178       0x1c ./drivers/fsl_edma.o
                0x0000000000005178                DMA5_DriverIRQHandler
 .text.DMA6_DriverIRQHandler
                0x0000000000005194       0x1c ./drivers/fsl_edma.o
                0x0000000000005194                DMA6_DriverIRQHandler
 .text.DMA7_DriverIRQHandler
                0x00000000000051b0       0x1c ./drivers/fsl_edma.o
                0x00000000000051b0                DMA7_DriverIRQHandler
 .text.DMA8_DriverIRQHandler
                0x00000000000051cc       0x1c ./drivers/fsl_edma.o
                0x00000000000051cc                DMA8_DriverIRQHandler
 .text.DMA9_DriverIRQHandler
                0x00000000000051e8       0x1c ./drivers/fsl_edma.o
                0x00000000000051e8                DMA9_DriverIRQHandler
 .text.DMA10_DriverIRQHandler
                0x0000000000005204       0x1c ./drivers/fsl_edma.o
                0x0000000000005204                DMA10_DriverIRQHandler
 .text.DMA11_DriverIRQHandler
                0x0000000000005220       0x1c ./drivers/fsl_edma.o
                0x0000000000005220                DMA11_DriverIRQHandler
 .text.DMA12_DriverIRQHandler
                0x000000000000523c       0x1c ./drivers/fsl_edma.o
                0x000000000000523c                DMA12_DriverIRQHandler
 .text.DMA13_DriverIRQHandler
                0x0000000000005258       0x1c ./drivers/fsl_edma.o
                0x0000000000005258                DMA13_DriverIRQHandler
 .text.DMA14_DriverIRQHandler
                0x0000000000005274       0x1c ./drivers/fsl_edma.o
                0x0000000000005274                DMA14_DriverIRQHandler
 .text.DMA15_DriverIRQHandler
                0x0000000000005290       0x1c ./drivers/fsl_edma.o
                0x0000000000005290                DMA15_DriverIRQHandler
 .text.GPIO_PinInit
                0x00000000000052ac       0x64 ./drivers/fsl_gpio.o
                0x00000000000052ac                GPIO_PinInit
 .text.I2C_GetInstance
                0x0000000000005310       0x4c ./drivers/fsl_i2c.o
                0x0000000000005310                I2C_GetInstance
 .text.I2C_TransferCommonIRQHandler
                0x000000000000535c       0x50 ./drivers/fsl_i2c.o
 .text.I2C_MasterInit
                0x00000000000053ac       0xdc ./drivers/fsl_i2c.o
                0x00000000000053ac                I2C_MasterInit
 .text.I2C_MasterGetDefaultConfig
                0x0000000000005488       0x3c ./drivers/fsl_i2c.o
                0x0000000000005488                I2C_MasterGetDefaultConfig
 .text.I2C_MasterSetBaudRate
                0x00000000000054c4       0xe0 ./drivers/fsl_i2c.o
                0x00000000000054c4                I2C_MasterSetBaudRate
 .text.I2C_MasterTransferBlocking
                0x00000000000055a4      0x214 ./drivers/fsl_i2c.o
                0x00000000000055a4                I2C_MasterTransferBlocking
 .text.I2C0_DriverIRQHandler
                0x00000000000057b8       0x1c ./drivers/fsl_i2c.o
                0x00000000000057b8                I2C0_DriverIRQHandler
 .text.I2C1_DriverIRQHandler
                0x00000000000057d4       0x1c ./drivers/fsl_i2c.o
                0x00000000000057d4                I2C1_DriverIRQHandler
 .text.LPUART_GetInstance
                0x00000000000057f0       0x44 ./drivers/fsl_lpuart.o
                0x00000000000057f0                LPUART_GetInstance
 .text.LPUART_Init
                0x0000000000005834      0x290 ./drivers/fsl_lpuart.o
                0x0000000000005834                LPUART_Init
 .text.LPUART_GetDefaultConfig
                0x0000000000005ac4       0x70 ./drivers/fsl_lpuart.o
                0x0000000000005ac4                LPUART_GetDefaultConfig
 .text.LPUART0_DriverIRQHandler
                0x0000000000005b34       0x28 ./drivers/fsl_lpuart.o
                0x0000000000005b34                LPUART0_DriverIRQHandler
 .text.SAI_SetMasterClockDivider
                0x0000000000005b5c      0x114 ./drivers/fsl_sai.o
 .text.SAI_GetInstance
                0x0000000000005c70       0x44 ./drivers/fsl_sai.o
 .text.SAI_TxInit
                0x0000000000005cb4      0x240 ./drivers/fsl_sai.o
                0x0000000000005cb4                SAI_TxInit
 .text.I2S0_Rx_DriverIRQHandler
                0x0000000000005ef4       0x38 ./drivers/fsl_sai.o
                0x0000000000005ef4                I2S0_Rx_DriverIRQHandler
 .text.SAI_GetInstance
                0x0000000000005f2c       0x44 ./drivers/fsl_sai_edma.o
 .text.SAI_TransferTxCreateHandleEDMA
                0x0000000000005f70       0xa0 ./drivers/fsl_sai_edma.o
                0x0000000000005f70                SAI_TransferTxCreateHandleEDMA
 .text.SAI_TransferTxSetFormatEDMA
                0x0000000000006010       0x78 ./drivers/fsl_sai_edma.o
                0x0000000000006010                SAI_TransferTxSetFormatEDMA
 .text.SAI_TransferSendEDMA
                0x0000000000006088      0x184 ./drivers/fsl_sai_edma.o
                0x0000000000006088                SAI_TransferSendEDMA
 .text.UART_GetInstance
                0x000000000000620c       0x54 ./drivers/fsl_uart.o
                0x000000000000620c                UART_GetInstance
 .text.UART_Init
                0x0000000000006260      0x280 ./drivers/fsl_uart.o
                0x0000000000006260                UART_Init
 .text.UART_GetDefaultConfig
                0x00000000000064e0       0x58 ./drivers/fsl_uart.o
                0x00000000000064e0                UART_GetDefaultConfig
 .text.UART0_DriverIRQHandler
                0x0000000000006538       0x28 ./drivers/fsl_uart.o
                0x0000000000006538                UART0_DriverIRQHandler
 .text.UART1_DriverIRQHandler
                0x0000000000006560       0x28 ./drivers/fsl_uart.o
                0x0000000000006560                UART1_DriverIRQHandler
 .text.UART2_DriverIRQHandler
                0x0000000000006588       0x28 ./drivers/fsl_uart.o
                0x0000000000006588                UART2_DriverIRQHandler
 .text.SGTL_EnableModule
                0x00000000000065b0       0xe8 ./codec/fsl_sgtl5000.o
                0x00000000000065b0                SGTL_EnableModule
 .text.SGTL_DisableModule
                0x0000000000006698       0xe8 ./codec/fsl_sgtl5000.o
                0x0000000000006698                SGTL_DisableModule
 .text.SGTL_SetDataRoute
                0x0000000000006780      0x204 ./codec/fsl_sgtl5000.o
                0x0000000000006780                SGTL_SetDataRoute
 .text.SGTL_SetProtocol
                0x0000000000006984      0x110 ./codec/fsl_sgtl5000.o
                0x0000000000006984                SGTL_SetProtocol
 .text.SGTL_ConfigDataFormat
                0x0000000000006a94      0x28c ./codec/fsl_sgtl5000.o
                0x0000000000006a94                SGTL_ConfigDataFormat
 .text.BOARD_InitDebugConsole
                0x0000000000006d20       0x28 ./board/src/board.o
                0x0000000000006d20                BOARD_InitDebugConsole
 .text.BOARD_Codec_I2C_Init
                0x0000000000006d48       0x1c ./board/src/board.o
                0x0000000000006d48                BOARD_Codec_I2C_Init
 .text.BOARD_Codec_I2C_Send
                0x0000000000006d64       0x38 ./board/src/board.o
                0x0000000000006d64                BOARD_Codec_I2C_Send
 .text.BOARD_Codec_I2C_Receive
                0x0000000000006d9c       0x38 ./board/src/board.o
                0x0000000000006d9c                BOARD_Codec_I2C_Receive
 .text.CLOCK_SetSimSafeDivs
                0x0000000000006dd4       0x24 ./board/src/clock_config.o
 .text.CLOCK_SetXtal0Freq
                0x0000000000006df8       0x20 ./board/src/clock_config.o
 .text.CLOCK_CONFIG_SetFllExtRefDiv
                0x0000000000006e18       0x3c ./board/src/clock_config.o
 .text.BOARD_BootClockRUN
                0x0000000000006e54       0x60 ./board/src/clock_config.o
                0x0000000000006e54                BOARD_BootClockRUN
 .text.PORT_SetPinConfig
                0x0000000000006eb4       0x38 ./board/src/pin_mux.o
 .text.BOARD_InitPins
                0x0000000000006eec       0x8c ./board/src/pin_mux.o
                0x0000000000006eec                BOARD_InitPins
 .text.BOARD_I2C_ConfigurePins
                0x0000000000006f78       0x70 ./board/src/pin_mux.o
                0x0000000000006f78                BOARD_I2C_ConfigurePins
 .text.SystemInit
                0x0000000000006fe8       0x3c ./CMSIS/system_MK22F51212.o
                0x0000000000006fe8                SystemInit
 .text.SystemCoreClockUpdate
                0x0000000000007024      0x278 ./CMSIS/system_MK22F51212.o
                0x0000000000007024                SystemCoreClockUpdate
 .text.__assertion_failed
                0x000000000000729c       0x4c /usr/local/mcuxpressoide-10.2.1_795/ide/tools/bin/../lib/gcc/arm-none-eabi/7.2.1/../../../../arm-none-eabi/lib/thumb/v7e-m/fpv4-sp/hard/libcr_semihost_nf.a(_cr_assert.o)
                0x000000000000729c                __assertion_failed
 .text.__sys_appexit
                0x00000000000072e8        0xc /usr/local/mcuxpressoide-10.2.1_795/ide/tools/bin/../lib/gcc/arm-none-eabi/7.2.1/../../../../arm-none-eabi/lib/thumb/v7e-m/fpv4-sp/hard/libcr_semihost_nf.a(__sys_appexit.o)
                0x00000000000072e8                __exit
                0x00000000000072e8                __sys_appexit
 .text._Cwritebuf
                0x00000000000072f4       0x6c /usr/local/mcuxpressoide-10.2.1_795/ide/tools/bin/../lib/gcc/arm-none-eabi/7.2.1/../../../../arm-none-eabi/lib/thumb/v7e-m/fpv4-sp/hard/libcr_c.a(_writebuf.o)
                0x00000000000072f4                _Cwritebuf
 .text.malloc   0x0000000000007360       0xc8 /usr/local/mcuxpressoide-10.2.1_795/ide/tools/bin/../lib/gcc/arm-none-eabi/7.2.1/../../../../arm-none-eabi/lib/thumb/v7e-m/fpv4-sp/hard/libcr_c.a(alloc.o)
                0x0000000000007360                malloc
 .text._Csys_alloc
                0x0000000000007428       0x20 /usr/local/mcuxpressoide-10.2.1_795/ide/tools/bin/../lib/gcc/arm-none-eabi/7.2.1/../../../../arm-none-eabi/lib/thumb/v7e-m/fpv4-sp/hard/libcr_c.a(alloc.o)
                0x0000000000007428                _Csys_alloc
 .text.fseek    0x0000000000007448      0x100 /usr/local/mcuxpressoide-10.2.1_795/ide/tools/bin/../lib/gcc/arm-none-eabi/7.2.1/../../../../arm-none-eabi/lib/thumb/v7e-m/fpv4-sp/hard/libcr_c.a(fseek.o)
                0x0000000000007448                fseek
 .text.ftell    0x0000000000007548       0x44 /usr/local/mcuxpressoide-10.2.1_795/ide/tools/bin/../lib/gcc/arm-none-eabi/7.2.1/../../../../arm-none-eabi/lib/thumb/v7e-m/fpv4-sp/hard/libcr_c.a(ftell.o)
                0x0000000000007548                ftell
 .text._initio  0x000000000000758c       0x78 /usr/local/mcuxpressoide-10.2.1_795/ide/tools/bin/../lib/gcc/arm-none-eabi/7.2.1/../../../../arm-none-eabi/lib/thumb/v7e-m/fpv4-sp/hard/libcr_c.a(initio.o)
                0x000000000000758c                _initio
 .text.__vfprintf
                0x0000000000007604      0xb98 /usr/local/mcuxpressoide-10.2.1_795/ide/tools/bin/../lib/gcc/arm-none-eabi/7.2.1/../../../../arm-none-eabi/lib/thumb/v7e-m/fpv4-sp/hard/libcr_c.a(printf.o)
                0x0000000000007604                __vfprintf
 .text._vsnprintf
                0x000000000000819c       0x5c /usr/local/mcuxpressoide-10.2.1_795/ide/tools/bin/../lib/gcc/arm-none-eabi/7.2.1/../../../../arm-none-eabi/lib/thumb/v7e-m/fpv4-sp/hard/libcr_c.a(printf.o)
                0x000000000000819c                _vsnprintf
 .text._printf  0x00000000000081f8       0x54 /usr/local/mcuxpressoide-10.2.1_795/ide/tools/bin/../lib/gcc/arm-none-eabi/7.2.1/../../../../arm-none-eabi/lib/thumb/v7e-m/fpv4-sp/hard/libcr_c.a(printf.o)
                0x00000000000081f8                _printf
 .text.setvbuf  0x000000000000824c       0x40 /usr/local/mcuxpressoide-10.2.1_795/ide/tools/bin/../lib/gcc/arm-none-eabi/7.2.1/../../../../arm-none-eabi/lib/thumb/v7e-m/fpv4-sp/hard/libcr_c.a(setvbuf.o)
                0x000000000000824c                setvbuf
 .text._sbrk    0x000000000000828c       0x3c /usr/local/mcuxpressoide-10.2.1_795/ide/tools/bin/../lib/gcc/arm-none-eabi/7.2.1/../../../../arm-none-eabi/lib/thumb/v7e-m/fpv4-sp/hard/libcr_c.a(_cr_sbrk.o)
                0x000000000000828c                _sbrk
 .text.fflush   0x00000000000082c8       0x44 /usr/local/mcuxpressoide-10.2.1_795/ide/tools/bin/../lib/gcc/arm-none-eabi/7.2.1/../../../../arm-none-eabi/lib/thumb/v7e-m/fpv4-sp/hard/libcr_c.a(fflush.o)
                0x00000000000082c8                fflush
 .text.__check_heap_overflow
                0x000000000000830c       0x18 /usr/local/mcuxpressoide-10.2.1_795/ide/tools/bin/../lib/gcc/arm-none-eabi/7.2.1/../../../../arm-none-eabi/lib/thumb/v7e-m/fpv4-sp/hard/libcr_c.a(_cr_check_heap.o)
                0x000000000000830c                __check_heap_overflow
 .text.UART_EnableTx
                0x0000000000008324       0x40 ./utilities/fsl_io.o
 .text.UART_EnableRx
                0x0000000000008364       0x40 ./utilities/fsl_io.o
 .text.LPUART_EnableTx
                0x00000000000083a4       0x38 ./utilities/fsl_io.o
 .text.LPUART_EnableRx
                0x00000000000083dc       0x38 ./utilities/fsl_io.o
 .text.LOG_Init
                0x0000000000008414       0x30 ./utilities/fsl_log.o
                0x0000000000008414                LOG_Init
 .text.USB_DeviceKhciPrimeNextSetup
                0x0000000000008444       0x66 ./usb/device/source/khci/usb_device_khci.o
 .text.USB_DeviceKhciSetDefaultState
                0x00000000000084aa      0x158 ./usb/device/source/khci/usb_device_khci.o
 .text.USB_DeviceKhciEndpointInit
                0x0000000000008602      0x12c ./usb/device/source/khci/usb_device_khci.o
 .text.USB_DeviceKhciEndpointDeinit
                0x000000000000872e       0x5c ./usb/device/source/khci/usb_device_khci.o
 .text.USB_DeviceKhciEndpointStall
                0x000000000000878a       0xb8 ./usb/device/source/khci/usb_device_khci.o
 .text.USB_DeviceKhciEndpointUnstall
                0x0000000000008842      0x10a ./usb/device/source/khci/usb_device_khci.o
 .text.USB_DeviceKhciInterruptTokenDone
                0x000000000000894c      0x54e ./usb/device/source/khci/usb_device_khci.o
 .text.USB_DeviceKhciInterruptReset
                0x0000000000008e9a       0x42 ./usb/device/source/khci/usb_device_khci.o
 .text.USB_DeviceKhciInterruptStall
                0x0000000000008edc       0x5c ./usb/device/source/khci/usb_device_khci.o
 .text.USB_DeviceKhciDeinit
                0x0000000000008f38       0x6c ./usb/device/source/khci/usb_device_khci.o
                0x0000000000008f38                USB_DeviceKhciDeinit
 .text.USB_DeviceKhciSend
                0x0000000000008fa4      0x11c ./usb/device/source/khci/usb_device_khci.o
                0x0000000000008fa4                USB_DeviceKhciSend
 .text.USB_DeviceKhciRecv
                0x00000000000090c0      0x160 ./usb/device/source/khci/usb_device_khci.o
                0x00000000000090c0                USB_DeviceKhciRecv
 .text.USB_DeviceKhciCancel
                0x0000000000009220       0x86 ./usb/device/source/khci/usb_device_khci.o
                0x0000000000009220                USB_DeviceKhciCancel
 .text.USB_DeviceKhciIsrFunction
                0x00000000000092a6       0x74 ./usb/device/source/khci/usb_device_khci.o
                0x00000000000092a6                USB_DeviceKhciIsrFunction
 .text.USB_DeviceCh9GetStatus
                0x000000000000931a       0xe8 ./usb/device/source/usb_device_ch9.o
 .text.USB_DeviceCh9SetClearFeature
                0x0000000000009402       0xf2 ./usb/device/source/usb_device_ch9.o
 .text.USB_DeviceCh9SetAddress
                0x00000000000094f4       0x9c ./usb/device/source/usb_device_ch9.o
 .text.USB_DeviceCh9GetDescriptor
                0x0000000000009590       0xe2 ./usb/device/source/usb_device_ch9.o
 .text.USB_DeviceCh9GetConfiguration
                0x0000000000009672       0x58 ./usb/device/source/usb_device_ch9.o
 .text.USB_DeviceCh9SetConfiguration
                0x00000000000096ca       0x88 ./usb/device/source/usb_device_ch9.o
 .text.USB_DeviceCh9GetInterface
                0x0000000000009752       0x6e ./usb/device/source/usb_device_ch9.o
 .text.USB_DeviceCh9SetInterface
                0x00000000000097c0       0x6a ./usb/device/source/usb_device_ch9.o
 .text.USB_DeviceCh9SynchFrame
                0x000000000000982a       0x62 ./usb/device/source/usb_device_ch9.o
 .text.USB_DeviceControlCallbackFeedback
                0x000000000000988c       0xb4 ./usb/device/source/usb_device_ch9.o
 .text.USB_DeviceFreeHandle
                0x0000000000009940       0x32 ./usb/device/source/usb_device_dci.o
 .text.USB_DeviceTransfer
                0x0000000000009972      0x10e ./usb/device/source/usb_device_dci.o
 .text.USB_DeviceControl
                0x0000000000009a80       0x4c ./usb/device/source/usb_device_dci.o
 .text.USB_DeviceResetNotification
                0x0000000000009acc       0x98 ./usb/device/source/usb_device_dci.o
 .text.USB_DeviceNotification
                0x0000000000009b64       0xfe ./usb/device/source/usb_device_dci.o
 .text.USB_DeviceNotificationTrigger
                0x0000000000009c62       0x40 ./usb/device/source/usb_device_dci.o
                0x0000000000009c62                USB_DeviceNotificationTrigger
 .text.USB_DeviceInit
                0x0000000000009ca2      0x166 ./usb/device/source/usb_device_dci.o
                0x0000000000009ca2                USB_DeviceInit
 .text.USB_DeviceRun
                0x0000000000009e08       0x1c ./usb/device/source/usb_device_dci.o
                0x0000000000009e08                USB_DeviceRun
 .text.USB_DeviceDeinit
                0x0000000000009e24       0x42 ./usb/device/source/usb_device_dci.o
                0x0000000000009e24                USB_DeviceDeinit
 .text.USB_DeviceSendRequest
                0x0000000000009e66       0x32 ./usb/device/source/usb_device_dci.o
                0x0000000000009e66                USB_DeviceSendRequest
 .text.USB_DeviceRecvRequest
                0x0000000000009e98       0x2c ./usb/device/source/usb_device_dci.o
                0x0000000000009e98                USB_DeviceRecvRequest
 .text.USB_DeviceInitEndpoint
                0x0000000000009ec4       0xbe ./usb/device/source/usb_device_dci.o
                0x0000000000009ec4                USB_DeviceInitEndpoint
 .text.USB_DeviceDeinitEndpoint
                0x0000000000009f82       0xb0 ./usb/device/source/usb_device_dci.o
                0x0000000000009f82                USB_DeviceDeinitEndpoint
 .text.USB_DeviceStallEndpoint
                0x000000000000a032       0x30 ./usb/device/source/usb_device_dci.o
                0x000000000000a032                USB_DeviceStallEndpoint
 .text.USB_DeviceUnstallEndpoint
                0x000000000000a062       0x30 ./usb/device/source/usb_device_dci.o
                0x000000000000a062                USB_DeviceUnstallEndpoint
 .text.USB_DeviceAudioFreeHandle
                0x000000000000a092       0x42 ./usb/device/class/audio/usb_device_audio.o
 .text.USB_DeviceAudioInterruptIn
                0x000000000000a0d4       0x4c ./usb/device/class/audio/usb_device_audio.o
                0x000000000000a0d4                USB_DeviceAudioInterruptIn
 .text.USB_DeviceAudioIsochronousIn
                0x000000000000a120       0x52 ./usb/device/class/audio/usb_device_audio.o
                0x000000000000a120                USB_DeviceAudioIsochronousIn
 .text.USB_DeviceAudioIsochronousOut
                0x000000000000a172       0x52 ./usb/device/class/audio/usb_device_audio.o
                0x000000000000a172                USB_DeviceAudioIsochronousOut
 .text.USB_DeviceAudioStreamEndpointsDeinit
                0x000000000000a1c4       0xcc ./usb/device/class/audio/usb_device_audio.o
                0x000000000000a1c4                USB_DeviceAudioStreamEndpointsDeinit
 .text.USB_DeviceAudioControlEndpointsDeinit
                0x000000000000a290       0x5e ./usb/device/class/audio/usb_device_audio.o
                0x000000000000a290                USB_DeviceAudioControlEndpointsDeinit
 .text.USB_DeviceAudioSetControlTerminal
                0x000000000000a2ee       0x1c ./usb/device/class/audio/usb_device_audio.o
                0x000000000000a2ee                USB_DeviceAudioSetControlTerminal
 .text.USB_DeviceAudioGetControlTerminal
                0x000000000000a30a       0x1c ./usb/device/class/audio/usb_device_audio.o
                0x000000000000a30a                USB_DeviceAudioGetControlTerminal
 .text.USB_DeviceAudioSetRequestInterface
                0x000000000000a326       0x8a ./usb/device/class/audio/usb_device_audio.o
                0x000000000000a326                USB_DeviceAudioSetRequestInterface
 .text.USB_DeviceAudioGetRequestInterface
                0x000000000000a3b0       0x8a ./usb/device/class/audio/usb_device_audio.o
                0x000000000000a3b0                USB_DeviceAudioGetRequestInterface
 .text.USB_DeviceAudioInit
                0x000000000000a43a       0x7c ./usb/device/class/audio/usb_device_audio.o
                0x000000000000a43a                USB_DeviceAudioInit
 .text.USB_DeviceAudioDeinit
                0x000000000000a4b6       0x3e ./usb/device/class/audio/usb_device_audio.o
                0x000000000000a4b6                USB_DeviceAudioDeinit
 .text.USB_DeviceAudioSend
                0x000000000000a4f4       0x56 ./usb/device/class/audio/usb_device_audio.o
                0x000000000000a4f4                USB_DeviceAudioSend
 .text.USB_DeviceAudioRecv
                0x000000000000a54a       0x56 ./usb/device/class/audio/usb_device_audio.o
                0x000000000000a54a                USB_DeviceAudioRecv
 .text.USB_DeviceClassCallback
                0x000000000000a5a0       0x62 ./usb/device/class/usb_device_class.o
                0x000000000000a5a0                USB_DeviceClassCallback
 .text.DMA0_IRQHandler
                0x000000000000a602        0x8 ./startup/startup_mk22f51212.o
                0x000000000000a602                DMA0_IRQHandler
 .text.DMA1_IRQHandler
                0x000000000000a60a        0x8 ./startup/startup_mk22f51212.o
                0x000000000000a60a                DMA1_IRQHandler
 .text.DMA2_IRQHandler
                0x000000000000a612        0x8 ./startup/startup_mk22f51212.o
                0x000000000000a612                DMA2_IRQHandler
 .text.DMA3_IRQHandler
                0x000000000000a61a        0x8 ./startup/startup_mk22f51212.o
                0x000000000000a61a                DMA3_IRQHandler
 .text.DMA4_IRQHandler
                0x000000000000a622        0x8 ./startup/startup_mk22f51212.o
                0x000000000000a622                DMA4_IRQHandler
 .text.DMA5_IRQHandler
                0x000000000000a62a        0x8 ./startup/startup_mk22f51212.o
                0x000000000000a62a                DMA5_IRQHandler
 .text.DMA6_IRQHandler
                0x000000000000a632        0x8 ./startup/startup_mk22f51212.o
                0x000000000000a632                DMA6_IRQHandler
 .text.DMA7_IRQHandler
                0x000000000000a63a        0x8 ./startup/startup_mk22f51212.o
                0x000000000000a63a                DMA7_IRQHandler
 .text.DMA8_IRQHandler
                0x000000000000a642        0x8 ./startup/startup_mk22f51212.o
                0x000000000000a642                DMA8_IRQHandler
 .text.DMA9_IRQHandler
                0x000000000000a64a        0x8 ./startup/startup_mk22f51212.o
                0x000000000000a64a                DMA9_IRQHandler
 .text.DMA10_IRQHandler
                0x000000000000a652        0x8 ./startup/startup_mk22f51212.o
                0x000000000000a652                DMA10_IRQHandler
 .text.DMA11_IRQHandler
                0x000000000000a65a        0x8 ./startup/startup_mk22f51212.o
                0x000000000000a65a                DMA11_IRQHandler
 .text.DMA12_IRQHandler
                0x000000000000a662        0x8 ./startup/startup_mk22f51212.o
                0x000000000000a662                DMA12_IRQHandler
 .text.DMA13_IRQHandler
                0x000000000000a66a        0x8 ./startup/startup_mk22f51212.o
                0x000000000000a66a                DMA13_IRQHandler
 .text.DMA14_IRQHandler
                0x000000000000a672        0x8 ./startup/startup_mk22f51212.o
                0x000000000000a672                DMA14_IRQHandler
 .text.DMA15_IRQHandler
                0x000000000000a67a        0x8 ./startup/startup_mk22f51212.o
                0x000000000000a67a                DMA15_IRQHandler
 .text.DMA_Error_IRQHandler
                0x000000000000a682        0x8 ./startup/startup_mk22f51212.o
                0x000000000000a682                DMA_Error_IRQHandler
 .text.MCM_IRQHandler
                0x000000000000a68a        0x8 ./startup/startup_mk22f51212.o
                0x000000000000a68a                MCM_IRQHandler
 .text.FTF_IRQHandler
                0x000000000000a692        0x8 ./startup/startup_mk22f51212.o
                0x000000000000a692                FTF_IRQHandler
 .text.Read_Collision_IRQHandler
                0x000000000000a69a        0x8 ./startup/startup_mk22f51212.o
                0x000000000000a69a                Read_Collision_IRQHandler
 .text.LVD_LVW_IRQHandler
                0x000000000000a6a2        0x8 ./startup/startup_mk22f51212.o
                0x000000000000a6a2                LVD_LVW_IRQHandler
 .text.LLWU_IRQHandler
                0x000000000000a6aa        0x8 ./startup/startup_mk22f51212.o
                0x000000000000a6aa                LLWU_IRQHandler
 .text.WDOG_EWM_IRQHandler
                0x000000000000a6b2        0x8 ./startup/startup_mk22f51212.o
                0x000000000000a6b2                WDOG_EWM_IRQHandler
 .text.RNG_IRQHandler
                0x000000000000a6ba        0x8 ./startup/startup_mk22f51212.o
                0x000000000000a6ba                RNG_IRQHandler
 .text.I2C0_IRQHandler
                0x000000000000a6c2        0x8 ./startup/startup_mk22f51212.o
                0x000000000000a6c2                I2C0_IRQHandler
 .text.I2C1_IRQHandler
                0x000000000000a6ca        0x8 ./startup/startup_mk22f51212.o
                0x000000000000a6ca                I2C1_IRQHandler
 .text.SPI0_IRQHandler
                0x000000000000a6d2        0x8 ./startup/startup_mk22f51212.o
                0x000000000000a6d2                SPI0_IRQHandler
 .text.SPI1_IRQHandler
                0x000000000000a6da        0x8 ./startup/startup_mk22f51212.o
                0x000000000000a6da                SPI1_IRQHandler
 .text.I2S0_Rx_IRQHandler
                0x000000000000a6e2        0x8 ./startup/startup_mk22f51212.o
                0x000000000000a6e2                I2S0_Rx_IRQHandler
 .text.LPUART0_IRQHandler
                0x000000000000a6ea        0x8 ./startup/startup_mk22f51212.o
                0x000000000000a6ea                LPUART0_IRQHandler
 .text.UART0_RX_TX_IRQHandler
                0x000000000000a6f2        0x8 ./startup/startup_mk22f51212.o
                0x000000000000a6f2                UART0_RX_TX_IRQHandler
 .text.UART0_ERR_IRQHandler
                0x000000000000a6fa        0x8 ./startup/startup_mk22f51212.o
                0x000000000000a6fa                UART0_ERR_IRQHandler
 .text.UART1_RX_TX_IRQHandler
                0x000000000000a702        0x8 ./startup/startup_mk22f51212.o
                0x000000000000a702                UART1_RX_TX_IRQHandler
 .text.UART1_ERR_IRQHandler
                0x000000000000a70a        0x8 ./startup/startup_mk22f51212.o
                0x000000000000a70a                UART1_ERR_IRQHandler
 .text.UART2_RX_TX_IRQHandler
                0x000000000000a712        0x8 ./startup/startup_mk22f51212.o
                0x000000000000a712                UART2_RX_TX_IRQHandler
 .text.UART2_ERR_IRQHandler
                0x000000000000a71a        0x8 ./startup/startup_mk22f51212.o
                0x000000000000a71a                UART2_ERR_IRQHandler
 .text.Reserved53_IRQHandler
                0x000000000000a722        0x8 ./startup/startup_mk22f51212.o
                0x000000000000a722                Reserved53_IRQHandler
 .text.Reserved54_IRQHandler
                0x000000000000a72a        0x8 ./startup/startup_mk22f51212.o
                0x000000000000a72a                Reserved54_IRQHandler
 .text.ADC0_IRQHandler
                0x000000000000a732        0x8 ./startup/startup_mk22f51212.o
                0x000000000000a732                ADC0_IRQHandler
 .text.CMP0_IRQHandler
                0x000000000000a73a        0x8 ./startup/startup_mk22f51212.o
                0x000000000000a73a                CMP0_IRQHandler
 .text.CMP1_IRQHandler
                0x000000000000a742        0x8 ./startup/startup_mk22f51212.o
                0x000000000000a742                CMP1_IRQHandler
 .text.FTM0_IRQHandler
                0x000000000000a74a        0x8 ./startup/startup_mk22f51212.o
                0x000000000000a74a                FTM0_IRQHandler
 .text.FTM1_IRQHandler
                0x000000000000a752        0x8 ./startup/startup_mk22f51212.o
                0x000000000000a752                FTM1_IRQHandler
 .text.FTM2_IRQHandler
                0x000000000000a75a        0x8 ./startup/startup_mk22f51212.o
                0x000000000000a75a                FTM2_IRQHandler
 .text.Reserved61_IRQHandler
                0x000000000000a762        0x8 ./startup/startup_mk22f51212.o
                0x000000000000a762                Reserved61_IRQHandler
 .text.RTC_IRQHandler
                0x000000000000a76a        0x8 ./startup/startup_mk22f51212.o
                0x000000000000a76a                RTC_IRQHandler
 .text.RTC_Seconds_IRQHandler
                0x000000000000a772        0x8 ./startup/startup_mk22f51212.o
                0x000000000000a772                RTC_Seconds_IRQHandler
 .text.PIT0_IRQHandler
                0x000000000000a77a        0x8 ./startup/startup_mk22f51212.o
                0x000000000000a77a                PIT0_IRQHandler
 .text.PIT1_IRQHandler
                0x000000000000a782        0x8 ./startup/startup_mk22f51212.o
                0x000000000000a782                PIT1_IRQHandler
 .text.PIT2_IRQHandler
                0x000000000000a78a        0x8 ./startup/startup_mk22f51212.o
                0x000000000000a78a                PIT2_IRQHandler
 .text.PIT3_IRQHandler
                0x000000000000a792        0x8 ./startup/startup_mk22f51212.o
                0x000000000000a792                PIT3_IRQHandler
 .text.PDB0_IRQHandler
                0x000000000000a79a        0x8 ./startup/startup_mk22f51212.o
                0x000000000000a79a                PDB0_IRQHandler
 .text.Reserved70_IRQHandler
                0x000000000000a7a2        0x8 ./startup/startup_mk22f51212.o
                0x000000000000a7a2                Reserved70_IRQHandler
 .text.Reserved71_IRQHandler
                0x000000000000a7aa        0x8 ./startup/startup_mk22f51212.o
                0x000000000000a7aa                Reserved71_IRQHandler
 .text.DAC0_IRQHandler
                0x000000000000a7b2        0x8 ./startup/startup_mk22f51212.o
                0x000000000000a7b2                DAC0_IRQHandler
 .text.MCG_IRQHandler
                0x000000000000a7ba        0x8 ./startup/startup_mk22f51212.o
                0x000000000000a7ba                MCG_IRQHandler
 .text.LPTMR0_IRQHandler
                0x000000000000a7c2        0x8 ./startup/startup_mk22f51212.o
                0x000000000000a7c2                LPTMR0_IRQHandler
 .text.PORTA_IRQHandler
                0x000000000000a7ca        0x8 ./startup/startup_mk22f51212.o
                0x000000000000a7ca                PORTA_IRQHandler
 .text.PORTB_IRQHandler
                0x000000000000a7d2        0x8 ./startup/startup_mk22f51212.o
                0x000000000000a7d2                PORTB_IRQHandler
 .text.PORTC_IRQHandler
                0x000000000000a7da        0x8 ./startup/startup_mk22f51212.o
                0x000000000000a7da                PORTC_IRQHandler
 .text.PORTD_IRQHandler
                0x000000000000a7e2        0x8 ./startup/startup_mk22f51212.o
                0x000000000000a7e2                PORTD_IRQHandler
 .text.PORTE_IRQHandler
                0x000000000000a7ea        0x8 ./startup/startup_mk22f51212.o
                0x000000000000a7ea                PORTE_IRQHandler
 .text.SWI_IRQHandler
                0x000000000000a7f2        0x8 ./startup/startup_mk22f51212.o
                0x000000000000a7f2                SWI_IRQHandler
 .text.Reserved81_IRQHandler
                0x000000000000a7fa        0x8 ./startup/startup_mk22f51212.o
                0x000000000000a7fa                Reserved81_IRQHandler
 .text.Reserved82_IRQHandler
                0x000000000000a802        0x8 ./startup/startup_mk22f51212.o
                0x000000000000a802                Reserved82_IRQHandler
 .text.Reserved83_IRQHandler
                0x000000000000a80a        0x8 ./startup/startup_mk22f51212.o
                0x000000000000a80a                Reserved83_IRQHandler
 .text.Reserved84_IRQHandler
                0x000000000000a812        0x8 ./startup/startup_mk22f51212.o
                0x000000000000a812                Reserved84_IRQHandler
 .text.Reserved85_IRQHandler
                0x000000000000a81a        0x8 ./startup/startup_mk22f51212.o
                0x000000000000a81a                Reserved85_IRQHandler
 .text.Reserved86_IRQHandler
                0x000000000000a822        0x8 ./startup/startup_mk22f51212.o
                0x000000000000a822                Reserved86_IRQHandler
 .text.FTM3_IRQHandler
                0x000000000000a82a        0x8 ./startup/startup_mk22f51212.o
                0x000000000000a82a                FTM3_IRQHandler
 .text.DAC1_IRQHandler
                0x000000000000a832        0x8 ./startup/startup_mk22f51212.o
                0x000000000000a832                DAC1_IRQHandler
 .text.ADC1_IRQHandler
                0x000000000000a83a        0x8 ./startup/startup_mk22f51212.o
                0x000000000000a83a                ADC1_IRQHandler
 .text.CLOCK_EnableClock
                0x000000000000a842       0x34 ./sources/audio_speaker.o
 .text.EnableIRQ
                0x000000000000a876       0x2c ./sources/audio_speaker.o
 .text.GPIO_PinWrite
                0x000000000000a8a2       0x36 ./sources/audio_speaker.o
 .text.CODEC_SetFormat
                0x000000000000a8d8       0x26 ./sources/audio_speaker.o
 .text.SAI_TxClearStatusFlags
                0x000000000000a8fe       0x26 ./sources/audio_speaker.o
 .text.SAI_TxEnableInterrupts
                0x000000000000a924       0x26 ./sources/audio_speaker.o
 .text.i2c_release_bus_delay
                0x000000000000a94a       0x2a ./sources/audio_speaker.o
 .text.USB_DeviceIsrEnable
                0x000000000000a974       0x2c ./sources/audio_speaker.o
                0x000000000000a974                USB_DeviceIsrEnable
 .text.main     0x000000000000a9a0       0x26 ./sources/audio_speaker.o
                0x000000000000a9a0                main
 .text.HardFault_Handler
                0x000000000000a9c6       0x2c ./source/semihost_hardfault.o
                0x000000000000a9c6                HardFault_Handler
 .text.DisableGlobalIRQ
                0x000000000000a9f2       0x20 ./osa/usb_osa_bm.o
 .text.EnableGlobalIRQ
                0x000000000000aa12       0x1e ./osa/usb_osa_bm.o
 .text.USB_OsaEnterCritical
                0x000000000000aa30       0x1c ./osa/usb_osa_bm.o
                0x000000000000aa30                USB_OsaEnterCritical
 .text.USB_OsaExitCritical
                0x000000000000aa4c       0x16 ./osa/usb_osa_bm.o
                0x000000000000aa4c                USB_OsaExitCritical
 .text.CLOCK_EnableClock
                0x000000000000aa62       0x34 ./drivers/fsl_clock.o
 .text.CLOCK_DisableClock
                0x000000000000aa96       0x38 ./drivers/fsl_clock.o
 .text.OSC_SetExtRefClkConfig
                0x000000000000aace       0x40 ./drivers/fsl_clock.o
 .text.OSC_SetCapLoad
                0x000000000000ab0e       0x34 ./drivers/fsl_clock.o
 .text.CLOCK_GetPll0RefFreq
                0x000000000000ab42        0xe ./drivers/fsl_clock.o
 .text.CLOCK_GetFixedFreqClkFreq
                0x000000000000ab50       0x2e ./drivers/fsl_clock.o
                0x000000000000ab50                CLOCK_GetFixedFreqClkFreq
 .text.CLOCK_EnableClock
                0x000000000000ab7e       0x34 ./drivers/fsl_dmamux.o
 .text.CLOCK_EnableClock
                0x000000000000abb2       0x34 ./drivers/fsl_edma.o
 .text.EnableIRQ
                0x000000000000abe6       0x2c ./drivers/fsl_edma.o
 .text.DisableGlobalIRQ
                0x000000000000ac12       0x20 ./drivers/fsl_edma.o
 .text.EnableGlobalIRQ
                0x000000000000ac32       0x1e ./drivers/fsl_edma.o
 .text.EDMA_AbortTransfer
                0x000000000000ac50       0x6a ./drivers/fsl_edma.o
                0x000000000000ac50                EDMA_AbortTransfer
 .text.GPIO_PinWrite
                0x000000000000acba       0x36 ./drivers/fsl_gpio.o
 .text.GPIO_WritePinOutput
                0x000000000000acf0       0x22 ./drivers/fsl_gpio.o
 .text.CLOCK_EnableClock
                0x000000000000ad12       0x34 ./drivers/fsl_i2c.o
 .text.I2C_MasterClearStatusFlags
                0x000000000000ad46       0x5a ./drivers/fsl_i2c.o
 .text.I2C_CheckAndClearError
                0x000000000000ada0       0x44 ./drivers/fsl_i2c.o
 .text.I2C_MasterStart
                0x000000000000ade4       0x62 ./drivers/fsl_i2c.o
                0x000000000000ade4                I2C_MasterStart
 .text.I2C_MasterRepeatedStart
                0x000000000000ae46       0x9a ./drivers/fsl_i2c.o
                0x000000000000ae46                I2C_MasterRepeatedStart
 .text.I2C_MasterStop
                0x000000000000aee0       0x3a ./drivers/fsl_i2c.o
                0x000000000000aee0                I2C_MasterStop
 .text.I2C_MasterGetStatusFlags
                0x000000000000af1a       0x4a ./drivers/fsl_i2c.o
                0x000000000000af1a                I2C_MasterGetStatusFlags
 .text.I2C_MasterWriteBlocking
                0x000000000000af64       0xdc ./drivers/fsl_i2c.o
                0x000000000000af64                I2C_MasterWriteBlocking
 .text.I2C_MasterReadBlocking
                0x000000000000b040       0xdc ./drivers/fsl_i2c.o
                0x000000000000b040                I2C_MasterReadBlocking
 .text.CLOCK_EnableClock
                0x000000000000b11c       0x34 ./drivers/fsl_lpuart.o
 .text.CLOCK_EnableClock
                0x000000000000b150       0x34 ./drivers/fsl_sai.o
 .text.SAI_TxClearStatusFlags
                0x000000000000b184       0x26 ./drivers/fsl_sai.o
 .text.SAI_TxSetFIFOErrorContinue
                0x000000000000b1aa       0x38 ./drivers/fsl_sai.o
 .text.SAI_TxGetDefaultConfig
                0x000000000000b1e2       0x38 ./drivers/fsl_sai.o
                0x000000000000b1e2                SAI_TxGetDefaultConfig
 .text.SAI_TxReset
                0x000000000000b21a       0x46 ./drivers/fsl_sai.o
                0x000000000000b21a                SAI_TxReset
 .text.SAI_TxEnable
                0x000000000000b260       0x80 ./drivers/fsl_sai.o
                0x000000000000b260                SAI_TxEnable
 .text.SAI_TxSoftwareReset
                0x000000000000b2e0       0x2e ./drivers/fsl_sai.o
                0x000000000000b2e0                SAI_TxSoftwareReset
 .text.SAI_TxSetFormat
                0x000000000000b30e      0x182 ./drivers/fsl_sai.o
                0x000000000000b30e                SAI_TxSetFormat
 .text.SAI_TxEnableDMA
                0x000000000000b490       0x44 ./drivers/fsl_sai_edma.o
 .text.SAI_TxGetDataRegisterAddress
                0x000000000000b4d4       0x20 ./drivers/fsl_sai_edma.o
 .text.SAI_TxEDMACallback
                0x000000000000b4f4       0xa4 ./drivers/fsl_sai_edma.o
 .text.CLOCK_EnableClock
                0x000000000000b598       0x34 ./drivers/fsl_uart.o
 .text.UART0_RX_TX_DriverIRQHandler
                0x000000000000b5cc       0x10 ./drivers/fsl_uart.o
                0x000000000000b5cc                UART0_RX_TX_DriverIRQHandler
 .text.UART1_RX_TX_DriverIRQHandler
                0x000000000000b5dc       0x10 ./drivers/fsl_uart.o
                0x000000000000b5dc                UART1_RX_TX_DriverIRQHandler
 .text.UART2_RX_TX_DriverIRQHandler
                0x000000000000b5ec       0x10 ./drivers/fsl_uart.o
                0x000000000000b5ec                UART2_RX_TX_DriverIRQHandler
 .text.CODEC_I2C_WriteReg
                0x000000000000b5fc       0x5a ./codec/fsl_codec_common.o
                0x000000000000b5fc                CODEC_I2C_WriteReg
 .text.CODEC_I2C_ReadReg
                0x000000000000b656       0x66 ./codec/fsl_codec_common.o
                0x000000000000b656                CODEC_I2C_ReadReg
 .text.CODEC_Init
                0x000000000000b6bc       0x44 ./codec/fsl_codec_common.o
                0x000000000000b6bc                CODEC_Init
 .text.SGTL_Init
                0x000000000000b700      0x13a ./codec/fsl_sgtl5000.o
                0x000000000000b700                SGTL_Init
 .text.SGTL_Deinit
                0x000000000000b83a       0x42 ./codec/fsl_sgtl5000.o
                0x000000000000b83a                SGTL_Deinit
 .text.SGTL_SetMasterSlave
                0x000000000000b87c       0x38 ./codec/fsl_sgtl5000.o
                0x000000000000b87c                SGTL_SetMasterSlave
 .text.SGTL_WriteReg
                0x000000000000b8b4       0x3a ./codec/fsl_sgtl5000.o
                0x000000000000b8b4                SGTL_WriteReg
 .text.SGTL_ReadReg
                0x000000000000b8ee       0x36 ./codec/fsl_sgtl5000.o
                0x000000000000b8ee                SGTL_ReadReg
 .text.SGTL_ModifyReg
                0x000000000000b924       0x6e ./codec/fsl_sgtl5000.o
                0x000000000000b924                SGTL_ModifyReg
 .text.BOARD_I2C_Init
                0x000000000000b992       0x36 ./board/src/board.o
                0x000000000000b992                BOARD_I2C_Init
 .text.BOARD_I2C_Send
                0x000000000000b9c8       0x48 ./board/src/board.o
                0x000000000000b9c8                BOARD_I2C_Send
 .text.BOARD_I2C_Receive
                0x000000000000ba10       0x48 ./board/src/board.o
                0x000000000000ba10                BOARD_I2C_Receive
 .text.CLOCK_EnableClock
                0x000000000000ba58       0x34 ./board/src/pin_mux.o
 .text.PORT_SetPinMux
                0x000000000000ba8c       0x3a ./board/src/pin_mux.o
 .text.SystemInitHook
                0x000000000000bac6        0xe ./CMSIS/system_MK22F51212.o
                0x000000000000bac6                SystemInitHook
 .text.__main   0x000000000000bad4        0xe /usr/local/mcuxpressoide-10.2.1_795/ide/tools/bin/../lib/gcc/arm-none-eabi/7.2.1/../../../../arm-none-eabi/lib/thumb/v7e-m/fpv4-sp/hard/libcr_semihost_nf.a(_cr__main.o)
                0x000000000000bad4                __main
                0x000000000000bad4                __CR_SEMIHOST
 .text.memcpy   0x000000000000bae2        0x4 /usr/local/mcuxpressoide-10.2.1_795/ide/tools/bin/../lib/gcc/arm-none-eabi/7.2.1/../../../../arm-none-eabi/lib/thumb/v7e-m/fpv4-sp/hard/libcr_c.a(memcpy.o)
                0x000000000000bae2                memcpy
 .text.memset   0x000000000000bae6        0x4 /usr/local/mcuxpressoide-10.2.1_795/ide/tools/bin/../lib/gcc/arm-none-eabi/7.2.1/../../../../arm-none-eabi/lib/thumb/v7e-m/fpv4-sp/hard/libcr_c.a(memset.o)
                0x000000000000bae6                memset
 .text._deferredlazyseek
                0x000000000000baea       0x40 /usr/local/mcuxpressoide-10.2.1_795/ide/tools/bin/../lib/gcc/arm-none-eabi/7.2.1/../../../../arm-none-eabi/lib/thumb/v7e-m/fpv4-sp/hard/libcr_c.a(_deferredlazyseek.o)
                0x000000000000baea                _deferredlazyseek
 .text.__flsbuf
                0x000000000000bb2a      0x140 /usr/local/mcuxpressoide-10.2.1_795/ide/tools/bin/../lib/gcc/arm-none-eabi/7.2.1/../../../../arm-none-eabi/lib/thumb/v7e-m/fpv4-sp/hard/libcr_c.a(_deferredlazyseek.o)
                0x000000000000bb2a                __flsbuf
 .text._fflush  0x000000000000bc6a       0x52 /usr/local/mcuxpressoide-10.2.1_795/ide/tools/bin/../lib/gcc/arm-none-eabi/7.2.1/../../../../arm-none-eabi/lib/thumb/v7e-m/fpv4-sp/hard/libcr_c.a(_fflush.o)
                0x000000000000bc6a                _fflush
 .text.free     0x000000000000bcbc       0x30 /usr/local/mcuxpressoide-10.2.1_795/ide/tools/bin/../lib/gcc/arm-none-eabi/7.2.1/../../../../arm-none-eabi/lib/thumb/v7e-m/fpv4-sp/hard/libcr_c.a(alloc.o)
                0x000000000000bcbc                free
 .text.fputs    0x000000000000bcec       0x2c /usr/local/mcuxpressoide-10.2.1_795/ide/tools/bin/../lib/gcc/arm-none-eabi/7.2.1/../../../../arm-none-eabi/lib/thumb/v7e-m/fpv4-sp/hard/libcr_c.a(fputs.o)
                0x000000000000bcec                fputs
 .text.no_fp_display
                0x000000000000bd18        0x4 /usr/local/mcuxpressoide-10.2.1_795/ide/tools/bin/../lib/gcc/arm-none-eabi/7.2.1/../../../../arm-none-eabi/lib/thumb/v7e-m/fpv4-sp/hard/libcr_c.a(printf.o)
 .text.strlen   0x000000000000bd1c       0x4a /usr/local/mcuxpressoide-10.2.1_795/ide/tools/bin/../lib/gcc/arm-none-eabi/7.2.1/../../../../arm-none-eabi/lib/thumb/v7e-m/fpv4-sp/hard/libcr_c.a(strlen.o)
                0x000000000000bd1c                strlen
 .text._fdopen  0x000000000000bd66       0x68 /usr/local/mcuxpressoide-10.2.1_795/ide/tools/bin/../lib/gcc/arm-none-eabi/7.2.1/../../../../arm-none-eabi/lib/thumb/v7e-m/fpv4-sp/hard/libcr_c.a(_fdopen.o)
                0x000000000000bd66                _fdopen
 .text.fclose   0x000000000000bdce       0x58 /usr/local/mcuxpressoide-10.2.1_795/ide/tools/bin/../lib/gcc/arm-none-eabi/7.2.1/../../../../arm-none-eabi/lib/thumb/v7e-m/fpv4-sp/hard/libcr_c.a(fclose.o)
                0x000000000000bdce                fclose
 .text.remove   0x000000000000be26       0x14 /usr/local/mcuxpressoide-10.2.1_795/ide/tools/bin/../lib/gcc/arm-none-eabi/7.2.1/../../../../arm-none-eabi/lib/thumb/v7e-m/fpv4-sp/hard/libcr_c.a(remove.o)
                0x000000000000be26                remove
 .text._do_fflush
                0x000000000000be3a       0x40 /usr/local/mcuxpressoide-10.2.1_795/ide/tools/bin/../lib/gcc/arm-none-eabi/7.2.1/../../../../arm-none-eabi/lib/thumb/v7e-m/fpv4-sp/hard/libcr_c.a(_do_fflush.o)
                0x000000000000be3a                _do_fflush
 .text.__aeabi_memcpy
                0x000000000000be7a       0x34 /usr/local/mcuxpressoide-10.2.1_795/ide/tools/bin/../lib/gcc/arm-none-eabi/7.2.1/thumb/v7e-m/fpv4-sp/hard/libcr_eabihelpers.a(memcpy.o)
                0x000000000000be7a                __aeabi_memcpy
                0x000000000000be84                __aeabi_memcpy4
                0x000000000000be84                __aeabi_memcpy8
 .text.__aeabi_memset_lowlevel
                0x000000000000beae       0x32 /usr/local/mcuxpressoide-10.2.1_795/ide/tools/bin/../lib/gcc/arm-none-eabi/7.2.1/thumb/v7e-m/fpv4-sp/hard/libcr_eabihelpers.a(memcpy.o)
                0x000000000000beae                __aeabi_lowlevel_memset
 .text.__sys_close
                0x000000000000bee0        0xc /usr/local/mcuxpressoide-10.2.1_795/ide/tools/bin/../lib/gcc/arm-none-eabi/7.2.1/../../../../arm-none-eabi/lib/thumb/v7e-m/fpv4-sp/hard/libcr_semihost_nf.a(__sys_close.o)
                0x000000000000bee0                __sys_close
 .text.__sys_flen
                0x000000000000beec        0xc /usr/local/mcuxpressoide-10.2.1_795/ide/tools/bin/../lib/gcc/arm-none-eabi/7.2.1/../../../../arm-none-eabi/lib/thumb/v7e-m/fpv4-sp/hard/libcr_semihost_nf.a(__sys_flen.o)
                0x000000000000beec                __sys_flen
 .text.__sys_istty
                0x000000000000bef8        0xc /usr/local/mcuxpressoide-10.2.1_795/ide/tools/bin/../lib/gcc/arm-none-eabi/7.2.1/../../../../arm-none-eabi/lib/thumb/v7e-m/fpv4-sp/hard/libcr_semihost_nf.a(__sys_istty.o)
                0x000000000000bef8                __sys_istty
 .text.__sys_remove
                0x000000000000bf04        0xc /usr/local/mcuxpressoide-10.2.1_795/ide/tools/bin/../lib/gcc/arm-none-eabi/7.2.1/../../../../arm-none-eabi/lib/thumb/v7e-m/fpv4-sp/hard/libcr_semihost_nf.a(__sys_remove.o)
                0x000000000000bf04                __sys_remove
 .text.__sys_seek
                0x000000000000bf10        0xc /usr/local/mcuxpressoide-10.2.1_795/ide/tools/bin/../lib/gcc/arm-none-eabi/7.2.1/../../../../arm-none-eabi/lib/thumb/v7e-m/fpv4-sp/hard/libcr_semihost_nf.a(__sys_seek.o)
                0x000000000000bf10                __sys_seek
 .text.__sys_tmpnam
                0x000000000000bf1c        0xc /usr/local/mcuxpressoide-10.2.1_795/ide/tools/bin/../lib/gcc/arm-none-eabi/7.2.1/../../../../arm-none-eabi/lib/thumb/v7e-m/fpv4-sp/hard/libcr_semihost_nf.a(__sys_tmpnam.o)
                0x000000000000bf1c                __sys_tmpnam
 .text.__sys_write
                0x000000000000bf28        0xc /usr/local/mcuxpressoide-10.2.1_795/ide/tools/bin/../lib/gcc/arm-none-eabi/7.2.1/../../../../arm-none-eabi/lib/thumb/v7e-m/fpv4-sp/hard/libcr_semihost_nf.a(__sys_write.o)
                0x000000000000bf28                __sys_write
 *(SORT_BY_ALIGNMENT(.rodata) SORT_BY_ALIGNMENT(.rodata.*) SORT_BY_ALIGNMENT(.constdata) SORT_BY_ALIGNMENT(.constdata.*))
 .rodata        0x000000000000bf34       0x50 ./utilities/fsl_debug_console.o
 .rodata        0x000000000000bf84       0x27 ./utilities/fsl_io.o
 *fill*         0x000000000000bfab        0x1 ff
 .rodata.s_UsbDeviceStandardRequest
                0x000000000000bfac       0x34 ./usb/device/source/usb_device_ch9.o
 .rodata.s_UsbDeviceKhciInterface
                0x000000000000bfe0       0x18 ./usb/device/source/usb_device_dci.o
 .rodata.s_UsbDeviceClassInterfaceMap
                0x000000000000bff8       0x20 ./usb/device/class/usb_device_class.o
 .rodata        0x000000000000c018      0x136 ./sources/audio_speaker.o
 *fill*         0x000000000000c14e        0x2 ff
 .rodata        0x000000000000c150      0x175 ./drivers/fsl_clock.o
 *fill*         0x000000000000c2c5        0x3 ff
 .rodata.fllFactorTable.7490
                0x000000000000c2c8       0x10 ./drivers/fsl_clock.o
 .rodata        0x000000000000c2d8       0x42 ./drivers/fsl_dmamux.o
 *fill*         0x000000000000c31a        0x2 ff
 .rodata.s_edmaIRQNumber
                0x000000000000c31c       0x10 ./drivers/fsl_edma.o
 .rodata        0x000000000000c32c      0xbf3 ./drivers/fsl_edma.o
 *fill*         0x000000000000cf1f        0x1 ff
 .rodata        0x000000000000cf20       0x63 ./drivers/fsl_gpio.o
 *fill*         0x000000000000cf83        0x1 ff
 .rodata.s_i2cBases
                0x000000000000cf84        0x8 ./drivers/fsl_i2c.o
                0x000000000000cf84                s_i2cBases
 .rodata.s_i2cDividerTable
                0x000000000000cf8c       0x80 ./drivers/fsl_i2c.o
 .rodata.s_i2cClocks
                0x000000000000d00c        0x8 ./drivers/fsl_i2c.o
 .rodata        0x000000000000d014      0x2fa ./drivers/fsl_i2c.o
 *fill*         0x000000000000d30e        0x2 ff
 .rodata        0x000000000000d310      0x4da ./drivers/fsl_lpuart.o
 *fill*         0x000000000000d7ea        0x2 ff
 .rodata        0x000000000000d7ec      0x296 ./drivers/fsl_sai.o
 *fill*         0x000000000000da82        0x2 ff
 .rodata        0x000000000000da84      0x263 ./drivers/fsl_sai_edma.o
 *fill*         0x000000000000dce7        0x1 ff
 .rodata.s_uartBases
                0x000000000000dce8        0xc ./drivers/fsl_uart.o
 .rodata.s_uartClock
                0x000000000000dcf4        0xc ./drivers/fsl_uart.o
 .rodata        0x000000000000dd00      0x513 ./drivers/fsl_uart.o
 *fill*         0x000000000000e213        0x1 ff
 .rodata.mcgConfig_BOARD_BootClockRUN
                0x000000000000e214        0xb ./board/src/clock_config.o
                0x000000000000e214                mcgConfig_BOARD_BootClockRUN
 *fill*         0x000000000000e21f        0x1 ff
 .rodata.simConfig_BOARD_BootClockRUN
                0x000000000000e220        0x8 ./board/src/clock_config.o
                0x000000000000e220                simConfig_BOARD_BootClockRUN
 .rodata.oscConfig_BOARD_BootClockRUN
                0x000000000000e228        0x8 ./board/src/clock_config.o
                0x000000000000e228                oscConfig_BOARD_BootClockRUN
 .rodata        0x000000000000e230       0x23 ./board/src/pin_mux.o
 *fill*         0x000000000000e253        0x1 ff
 .rodata.__num_Ciob_streams
                0x000000000000e254        0x4 /usr/local/mcuxpressoide-10.2.1_795/ide/tools/bin/../lib/gcc/arm-none-eabi/7.2.1/../../../../arm-none-eabi/lib/thumb/v7e-m/fpv4-sp/hard/libcr_semihost_nf.a(__ciob.o)
                0x000000000000e254                __num_Ciob_streams
 .rodata.__assertion_failed.str1.1
                0x000000000000e258       0x15 /usr/local/mcuxpressoide-10.2.1_795/ide/tools/bin/../lib/gcc/arm-none-eabi/7.2.1/../../../../arm-none-eabi/lib/thumb/v7e-m/fpv4-sp/hard/libcr_semihost_nf.a(_cr_assert.o)
 .rodata._Csys_alloc.str1.1
                0x000000000000e26d       0x18 /usr/local/mcuxpressoide-10.2.1_795/ide/tools/bin/../lib/gcc/arm-none-eabi/7.2.1/../../../../arm-none-eabi/lib/thumb/v7e-m/fpv4-sp/hard/libcr_c.a(alloc.o)
 .rodata._initio.str1.1
                0x000000000000e285        0x4 /usr/local/mcuxpressoide-10.2.1_795/ide/tools/bin/../lib/gcc/arm-none-eabi/7.2.1/../../../../arm-none-eabi/lib/thumb/v7e-m/fpv4-sp/hard/libcr_c.a(initio.o)
 .rodata.__vfprintf.str1.1
                0x000000000000e289       0x35 /usr/local/mcuxpressoide-10.2.1_795/ide/tools/bin/../lib/gcc/arm-none-eabi/7.2.1/../../../../arm-none-eabi/lib/thumb/v7e-m/fpv4-sp/hard/libcr_c.a(printf.o)
                                         0x38 (size before relaxing)
                0x000000000000e2c0                . = ALIGN (0x4)
 *fill*         0x000000000000e2be        0x2 ff

.glue_7         0x000000000000e2c0        0x0
 .glue_7        0x000000000000e2c0        0x0 linker stubs

.glue_7t        0x000000000000e2c0        0x0
 .glue_7t       0x000000000000e2c0        0x0 linker stubs

.vfp11_veneer   0x000000000000e2c0        0x0
 .vfp11_veneer  0x000000000000e2c0        0x0 linker stubs

.v4_bx          0x000000000000e2c0        0x0
 .v4_bx         0x000000000000e2c0        0x0 linker stubs

.iplt           0x000000000000e2c0        0x0
 .iplt          0x000000000000e2c0        0x0 ./utilities/fsl_debug_console.o

.rel.dyn        0x000000000000e2c0        0x0
 .rel.iplt      0x000000000000e2c0        0x0 ./utilities/fsl_debug_console.o

.ARM.extab
 *(SORT_BY_ALIGNMENT(.ARM.extab*) SORT_BY_ALIGNMENT(.gnu.linkonce.armextab.*))
                0x000000000000e2c0                __exidx_start = .

.ARM.exidx
 *(SORT_BY_ALIGNMENT(.ARM.exidx*) SORT_BY_ALIGNMENT(.gnu.linkonce.armexidx.*))
                0x000000000000e2c0                __exidx_end = .
                0x000000000000e2c0                _etext = .

.m_usb_data
 *(SORT_BY_ALIGNMENT(m_usb_bdt))

.data_RAM2      0x000000001fff0000        0x0 load address 0x000000000000e2c0
 FILL mask 0xff
                [!provide]                        PROVIDE (__start_data_RAM2, .)
 *(SORT_BY_ALIGNMENT(.ramfunc.$RAM2))
 *(SORT_BY_ALIGNMENT(.ramfunc.$SRAM_LOWER))
 *(SORT_BY_ALIGNMENT(.data.$RAM2*))
 *(SORT_BY_ALIGNMENT(.data.$SRAM_LOWER*))
                0x000000001fff0000                . = ALIGN (0x4)
                [!provide]                        PROVIDE (__end_data_RAM2, .)

.uninit_RESERVED
                0x0000000020000000        0x0
 *(SORT_BY_ALIGNMENT(.bss.$RESERVED*))
                0x0000000020000000                . = ALIGN (0x4)
                0x0000000020000000                _end_uninit_RESERVED = .

.data           0x0000000020000000      0x23c load address 0x000000000000e2c0
 FILL mask 0xff
                0x0000000020000000                _data = .
 *(SORT_BY_ALIGNMENT(vtable))
 *(SORT_BY_ALIGNMENT(.ramfunc*))
 *(SORT_BY_ALIGNMENT(.data*))
 .data.g_UsbDeviceAudioSpeaker
                0x0000000020000000       0x74 ./sources/audio_speaker.o
                0x0000000020000000                g_UsbDeviceAudioSpeaker
 .data.s_audioConfig
                0x0000000020000074        0xc ./sources/audio_speaker.o
 .data.s_audioConfigList
                0x0000000020000080        0xc ./sources/audio_speaker.o
 .data.g_UsbDeviceAudioSpeakerEndpoints
                0x000000002000008c        0x8 ./sources/usb_device_descriptor.o
                0x000000002000008c                g_UsbDeviceAudioSpeakerEndpoints
 .data.g_UsbDeviceAudioControlEndpoints
                0x0000000020000094        0x4 ./sources/usb_device_descriptor.o
                0x0000000020000094                g_UsbDeviceAudioControlEndpoints
 .data.g_UsbDeviceAudioEntity
                0x0000000020000098        0xc ./sources/usb_device_descriptor.o
                0x0000000020000098                g_UsbDeviceAudioEntity
 .data.g_UsbDeviceAudioEntities
                0x00000000200000a4        0x8 ./sources/usb_device_descriptor.o
                0x00000000200000a4                g_UsbDeviceAudioEntities
 .data.g_UsbDeviceAudioControInterface
                0x00000000200000ac       0x10 ./sources/usb_device_descriptor.o
                0x00000000200000ac                g_UsbDeviceAudioControInterface
 .data.g_UsbDeviceAudioStreamInterface
                0x00000000200000bc       0x20 ./sources/usb_device_descriptor.o
                0x00000000200000bc                g_UsbDeviceAudioStreamInterface
 .data.g_UsbDeviceAudioInterfaces
                0x00000000200000dc       0x18 ./sources/usb_device_descriptor.o
                0x00000000200000dc                g_UsbDeviceAudioInterfaces
 .data.g_UsbDeviceAudioInterfaceList
                0x00000000200000f4        0x8 ./sources/usb_device_descriptor.o
                0x00000000200000f4                g_UsbDeviceAudioInterfaceList
 .data.g_UsbDeviceAudioClass
                0x00000000200000fc        0x8 ./sources/usb_device_descriptor.o
                0x00000000200000fc                g_UsbDeviceAudioClass
 .data.g_UsbDeviceDescriptor
                0x0000000020000104       0x12 ./sources/usb_device_descriptor.o
                0x0000000020000104                g_UsbDeviceDescriptor
 *fill*         0x0000000020000116        0x2 ff
 .data.g_UsbDeviceConfigurationDescriptor
                0x0000000020000118       0x80 ./sources/usb_device_descriptor.o
                0x0000000020000118                g_UsbDeviceConfigurationDescriptor
 .data.g_UsbDeviceString0
                0x0000000020000198        0x4 ./sources/usb_device_descriptor.o
                0x0000000020000198                g_UsbDeviceString0
 .data.g_UsbDeviceString1
                0x000000002000019c       0x26 ./sources/usb_device_descriptor.o
                0x000000002000019c                g_UsbDeviceString1
 *fill*         0x00000000200001c2        0x2 ff
 .data.g_UsbDeviceString2
                0x00000000200001c4       0x1e ./sources/usb_device_descriptor.o
                0x00000000200001c4                g_UsbDeviceString2
 *fill*         0x00000000200001e2        0x2 ff
 .data.g_UsbDeviceStringDescriptorLength
                0x00000000200001e4        0xc ./sources/usb_device_descriptor.o
                0x00000000200001e4                g_UsbDeviceStringDescriptorLength
 .data.g_UsbDeviceStringDescriptorArray
                0x00000000200001f0        0xc ./sources/usb_device_descriptor.o
                0x00000000200001f0                g_UsbDeviceStringDescriptorArray
 .data.g_UsbDeviceLanguage
                0x00000000200001fc        0xc ./sources/usb_device_descriptor.o
                0x00000000200001fc                g_UsbDeviceLanguage
 .data.g_UsbDeviceLanguageList
                0x0000000020000208       0x10 ./sources/usb_device_descriptor.o
                0x0000000020000208                g_UsbDeviceLanguageList
 .data.s_slowIrcFreq
                0x0000000020000218        0x4 ./drivers/fsl_clock.o
 .data.s_fastIrcFreq
                0x000000002000021c        0x4 ./drivers/fsl_clock.o
 .data.boardCodecConfig
                0x0000000020000220       0x18 ./board/src/board.o
                0x0000000020000220                boardCodecConfig
 .data.SystemCoreClock
                0x0000000020000238        0x4 ./CMSIS/system_MK22F51212.o
                0x0000000020000238                SystemCoreClock
                0x000000002000023c                . = ALIGN (0x4)
                0x000000002000023c                _edata = .

.igot.plt       0x000000002000023c        0x0 load address 0x000000000000e4fc
 .igot.plt      0x000000002000023c        0x0 ./utilities/fsl_debug_console.o

.bss_RAM2       0x000000001fff0000        0x0
                [!provide]                        PROVIDE (__start_bss_RAM2, .)
 *(SORT_BY_ALIGNMENT(.bss.$RAM2*))
 *(SORT_BY_ALIGNMENT(.bss.$SRAM_LOWER*))
                0x000000001fff0000                . = ALIGN ((. != 0x0)?0x4:0x1)
                [!provide]                        PROVIDE (__end_bss_RAM2, .)

.bss            0x0000000020000400     0x1fa0
                0x0000000020000400                _bss = .
 *(SORT_BY_ALIGNMENT(.bss*))
 .bss.m_usb_bdt
                0x0000000020000400      0x200 ./usb/device/source/khci/usb_device_khci.o
 .bss.s_debugConsoleIO
                0x0000000020000600        0x8 ./utilities/fsl_io.o
 .bss.m_usb_global
                0x0000000020000608       0xe4 ./usb/device/source/khci/usb_device_khci.o
 .bss.m_usb_global
                0x00000000200006ec       0x70 ./usb/device/source/usb_device_dci.o
 .bss.m_usb_global
                0x000000002000075c       0x18 ./usb/device/class/audio/usb_device_audio.o
 .bss.m_usb_global
                0x0000000020000774       0x18 ./usb/device/class/usb_device_class.o
 .bss.saiTxConfig
                0x000000002000078c        0x6 ./sources/audio_speaker.o
                0x000000002000078c                saiTxConfig
 *fill*         0x0000000020000792        0x2 
 .bss.audioFormat
                0x0000000020000794       0x14 ./sources/audio_speaker.o
                0x0000000020000794                audioFormat
 .bss.txHandle  0x00000000200007a8       0xe8 ./sources/audio_speaker.o
                0x00000000200007a8                txHandle
 .bss.dmaTxHandle
                0x0000000020000890       0x18 ./sources/audio_speaker.o
                0x0000000020000890                dmaTxHandle
 .bss.audioPlayDMATempBuff
                0x00000000200008a8       0xc0 ./sources/audio_speaker.o
 .bss.codecHandle
                0x0000000020000968       0x18 ./sources/audio_speaker.o
                0x0000000020000968                codecHandle
 .bss.audioPlayDataBuff
                0x0000000020000980     0x1800 ./sources/audio_speaker.o
                0x0000000020000980                audioPlayDataBuff
 .bss.audioPlayPacket
                0x0000000020002180       0xc4 ./sources/audio_speaker.o
                0x0000000020002180                audioPlayPacket
 .bss.audioFeedBackBuffer
                0x0000000020002244        0x3 ./sources/audio_speaker.o
                0x0000000020002244                audioFeedBackBuffer
 *fill*         0x0000000020002247        0x1 
 .bss.originFeedbackValue.9452
                0x0000000020002248        0x4 ./sources/audio_speaker.o
 .bss.feedbackValue.9451
                0x000000002000224c        0x4 ./sources/audio_speaker.o
 .bss.g_xtal0Freq
                0x0000000020002250        0x4 ./drivers/fsl_clock.o
                0x0000000020002250                g_xtal0Freq
 .bss.g_xtal32Freq
                0x0000000020002254        0x4 ./drivers/fsl_clock.o
                0x0000000020002254                g_xtal32Freq
 .bss.s_EDMAHandle
                0x0000000020002258       0x40 ./drivers/fsl_edma.o
 .bss.s_i2cHandle
                0x0000000020002298        0x8 ./drivers/fsl_i2c.o
 .bss.s_i2cMasterIsr
                0x00000000200022a0        0x4 ./drivers/fsl_i2c.o
 .bss.s_i2cSlaveIsr
                0x00000000200022a4        0x4 ./drivers/fsl_i2c.o
 .bss.s_lpuartHandle
                0x00000000200022a8        0x4 ./drivers/fsl_lpuart.o
 .bss.s_lpuartIsr
                0x00000000200022ac        0x4 ./drivers/fsl_lpuart.o
 .bss.s_saiHandle
                0x00000000200022b0        0x8 ./drivers/fsl_sai.o
 .bss.s_saiRxIsr
                0x00000000200022b8        0x4 ./drivers/fsl_sai.o
 .bss.s_edmaPrivateHandle
                0x00000000200022bc       0x10 ./drivers/fsl_sai_edma.o
 .bss.s_uartHandle
                0x00000000200022cc        0xc ./drivers/fsl_uart.o
 .bss.s_uartIsr
                0x00000000200022d8        0x4 ./drivers/fsl_uart.o
 .bss.__Ciob    0x00000000200022dc       0xb4 /usr/local/mcuxpressoide-10.2.1_795/ide/tools/bin/../lib/gcc/arm-none-eabi/7.2.1/../../../../arm-none-eabi/lib/thumb/v7e-m/fpv4-sp/hard/libcr_semihost_nf.a(__ciob.o)
                0x00000000200022dc                __Ciob
 .bss.__end_of_heap
                0x0000000020002390        0x4 /usr/local/mcuxpressoide-10.2.1_795/ide/tools/bin/../lib/gcc/arm-none-eabi/7.2.1/../../../../arm-none-eabi/lib/thumb/v7e-m/fpv4-sp/hard/libcr_c.a(__init_alloc.o)
                0x0000000020002390                __end_of_heap
 .bss.__heaps   0x0000000020002394        0x4 /usr/local/mcuxpressoide-10.2.1_795/ide/tools/bin/../lib/gcc/arm-none-eabi/7.2.1/../../../../arm-none-eabi/lib/thumb/v7e-m/fpv4-sp/hard/libcr_c.a(__init_alloc.o)
                0x0000000020002394                __heaps
 .bss.errno     0x0000000020002398        0x4 /usr/local/mcuxpressoide-10.2.1_795/ide/tools/bin/../lib/gcc/arm-none-eabi/7.2.1/../../../../arm-none-eabi/lib/thumb/v7e-m/fpv4-sp/hard/libcr_c.a(errno.o)
                0x0000000020002398                errno
 .bss.StartInstanceNum.7744
                0x000000002000239c        0x1 ./drivers/fsl_edma.o
 *(SORT_BY_ALIGNMENT(COMMON))
                0x00000000200023a0                . = ALIGN (0x4)
 *fill*         0x000000002000239d        0x3 
                0x00000000200023a0                _ebss = .
                [!provide]                        PROVIDE (end, .)

.noinit_RAM2    0x000000001fff0000        0x0
 *(SORT_BY_ALIGNMENT(.noinit.$RAM2*))
 *(SORT_BY_ALIGNMENT(.noinit.$SRAM_LOWER*))
                0x000000001fff0000                . = ALIGN (0x4)

.noinit         0x00000000200023a0        0x0
                0x00000000200023a0                _noinit = .
 *(SORT_BY_ALIGNMENT(.noinit*))
                0x00000000200023a0                . = ALIGN (0x4)
                0x00000000200023a0                _end_noinit = .
                0x0000000000002000                _HeapSize = 0x2000

.heap           0x00000000200023a0     0x2000
                0x00000000200023a0                _pvHeapStart = .
                0x00000000200043a0                . = (. + _HeapSize)
 *fill*         0x00000000200023a0     0x2000 
                0x00000000200043a0                . = ALIGN (0x4)
                0x00000000200043a0                _pvHeapLimit = .
                0x0000000000002000                _StackSize = 0x2000

.heap2stackfill
                0x00000000200043a0     0x2000
                0x00000000200063a0                . = (. + _StackSize)
 *fill*         0x00000000200043a0     0x2000 

.stack          0x000000002000e000        0x0
                0x000000002000e000                _vStackBase = .
                0x000000002000e000                . = ALIGN (0x4)
                0x0000000020010000                _vStackTop = (. + _StackSize)
                0x0000000000000000                _image_start = LOADADDR (.text)
                0x000000000000e4fc                _image_end = (LOADADDR (.data) + SIZEOF (.data))
                0x000000000000e4fc                _image_size = (_image_end - _image_start)
OUTPUT(twrk22f120m_dev_audio_speaker_bm.axf elf32-littlearm)

.debug_info     0x0000000000000000    0x1cb61
 .debug_info    0x0000000000000000      0x2b9 ./utilities/fsl_debug_console.o
 .debug_info    0x00000000000002b9      0xc0d ./utilities/fsl_io.o
 .debug_info    0x0000000000000ec6      0x336 ./utilities/fsl_log.o
 .debug_info    0x00000000000011fc     0x16d1 ./usb/device/source/khci/usb_device_khci.o
 .debug_info    0x00000000000028cd     0x1440 ./usb/device/source/usb_device_ch9.o
 .debug_info    0x0000000000003d0d     0x1184 ./usb/device/source/usb_device_dci.o
 .debug_info    0x0000000000004e91     0x16bf ./usb/device/class/audio/usb_device_audio.o
 .debug_info    0x0000000000006550      0xdc3 ./usb/device/class/usb_device_class.o
 .debug_info    0x0000000000007313      0x7d4 ./startup/startup_mk22f51212.o
 .debug_info    0x0000000000007ae7     0x32a7 ./sources/audio_speaker.o
 .debug_info    0x000000000000ad8e      0xe3d ./sources/usb_device_descriptor.o
 .debug_info    0x000000000000bbcb       0x37 ./source/semihost_hardfault.o
 .debug_info    0x000000000000bc02      0xe0b ./osa/usb_osa_bm.o
 .debug_info    0x000000000000ca0d     0x1e7d ./drivers/fsl_clock.o
 .debug_info    0x000000000000e88a      0x58d ./drivers/fsl_dmamux.o
 .debug_info    0x000000000000ee17     0x1faf ./drivers/fsl_edma.o
 .debug_info    0x0000000000010dc6      0x616 ./drivers/fsl_gpio.o
 .debug_info    0x00000000000113dc     0x1bba ./drivers/fsl_i2c.o
 .debug_info    0x0000000000012f96     0x17af ./drivers/fsl_lpuart.o
 .debug_info    0x0000000000014745     0x1fcf ./drivers/fsl_sai.o
 .debug_info    0x0000000000016714     0x1415 ./drivers/fsl_sai_edma.o
 .debug_info    0x0000000000017b29     0x18ff ./drivers/fsl_uart.o
 .debug_info    0x0000000000019428      0x53d ./codec/fsl_codec_common.o
 .debug_info    0x0000000000019965      0x884 ./codec/fsl_sgtl5000.o
 .debug_info    0x000000000001a1e9     0x109c ./board/src/board.o
 .debug_info    0x000000000001b285      0xb0b ./board/src/clock_config.o
 .debug_info    0x000000000001bd90      0x7b2 ./board/src/pin_mux.o
 .debug_info    0x000000000001c542      0x61f ./CMSIS/system_MK22F51212.o

.debug_abbrev   0x0000000000000000     0x3c82
 .debug_abbrev  0x0000000000000000      0x104 ./utilities/fsl_debug_console.o
 .debug_abbrev  0x0000000000000104      0x228 ./utilities/fsl_io.o
 .debug_abbrev  0x000000000000032c      0x17d ./utilities/fsl_log.o
 .debug_abbrev  0x00000000000004a9      0x2fc ./usb/device/source/khci/usb_device_khci.o
 .debug_abbrev  0x00000000000007a5      0x1ef ./usb/device/source/usb_device_ch9.o
 .debug_abbrev  0x0000000000000994      0x1c8 ./usb/device/source/usb_device_dci.o
 .debug_abbrev  0x0000000000000b5c      0x213 ./usb/device/class/audio/usb_device_audio.o
 .debug_abbrev  0x0000000000000d6f      0x1c2 ./usb/device/class/usb_device_class.o
 .debug_abbrev  0x0000000000000f31      0x159 ./startup/startup_mk22f51212.o
 .debug_abbrev  0x000000000000108a      0x47a ./sources/audio_speaker.o
 .debug_abbrev  0x0000000000001504      0x19c ./sources/usb_device_descriptor.o
 .debug_abbrev  0x00000000000016a0       0x2c ./source/semihost_hardfault.o
 .debug_abbrev  0x00000000000016cc      0x298 ./osa/usb_osa_bm.o
 .debug_abbrev  0x0000000000001964      0x31e ./drivers/fsl_clock.o
 .debug_abbrev  0x0000000000001c82      0x18d ./drivers/fsl_dmamux.o
 .debug_abbrev  0x0000000000001e0f      0x3a4 ./drivers/fsl_edma.o
 .debug_abbrev  0x00000000000021b3      0x1ab ./drivers/fsl_gpio.o
 .debug_abbrev  0x000000000000235e      0x34c ./drivers/fsl_i2c.o
 .debug_abbrev  0x00000000000026aa      0x2ce ./drivers/fsl_lpuart.o
 .debug_abbrev  0x0000000000002978      0x2ca ./drivers/fsl_sai.o
 .debug_abbrev  0x0000000000002c42      0x29b ./drivers/fsl_sai_edma.o
 .debug_abbrev  0x0000000000002edd      0x300 ./drivers/fsl_uart.o
 .debug_abbrev  0x00000000000031dd      0x162 ./codec/fsl_codec_common.o
 .debug_abbrev  0x000000000000333f      0x1ef ./codec/fsl_sgtl5000.o
 .debug_abbrev  0x000000000000352e      0x202 ./board/src/board.o
 .debug_abbrev  0x0000000000003730      0x1f1 ./board/src/clock_config.o
 .debug_abbrev  0x0000000000003921      0x210 ./board/src/pin_mux.o
 .debug_abbrev  0x0000000000003b31      0x151 ./CMSIS/system_MK22F51212.o

.debug_aranges  0x0000000000000000     0x1670
 .debug_aranges
                0x0000000000000000       0x30 ./utilities/fsl_debug_console.o
 .debug_aranges
                0x0000000000000030       0x58 ./utilities/fsl_io.o
 .debug_aranges
                0x0000000000000088       0x58 ./utilities/fsl_log.o
 .debug_aranges
                0x00000000000000e0       0xa0 ./usb/device/source/khci/usb_device_khci.o
 .debug_aranges
                0x0000000000000180       0x78 ./usb/device/source/usb_device_ch9.o
 .debug_aranges
                0x00000000000001f8       0xc8 ./usb/device/source/usb_device_dci.o
 .debug_aranges
                0x00000000000002c0      0x108 ./usb/device/class/audio/usb_device_audio.o
 .debug_aranges
                0x00000000000003c8       0x68 ./usb/device/class/usb_device_class.o
 .debug_aranges
                0x0000000000000430      0x2d0 ./startup/startup_mk22f51212.o
 .debug_aranges
                0x0000000000000700      0x150 ./sources/audio_speaker.o
 .debug_aranges
                0x0000000000000850       0x38 ./sources/usb_device_descriptor.o
 .debug_aranges
                0x0000000000000888       0x20 ./source/semihost_hardfault.o
 .debug_aranges
                0x00000000000008a8       0xe0 ./osa/usb_osa_bm.o
 .debug_aranges
                0x0000000000000988      0x1f8 ./drivers/fsl_clock.o
 .debug_aranges
                0x0000000000000b80       0x40 ./drivers/fsl_dmamux.o
 .debug_aranges
                0x0000000000000bc0      0x210 ./drivers/fsl_edma.o
 .debug_aranges
                0x0000000000000dd0       0x48 ./drivers/fsl_gpio.o
 .debug_aranges
                0x0000000000000e18      0x178 ./drivers/fsl_i2c.o
 .debug_aranges
                0x0000000000000f90      0x118 ./drivers/fsl_lpuart.o
 .debug_aranges
                0x00000000000010a8      0x1e8 ./drivers/fsl_sai.o
 .debug_aranges
                0x0000000000001290       0xb0 ./drivers/fsl_sai_edma.o
 .debug_aranges
                0x0000000000001340      0x140 ./drivers/fsl_uart.o
 .debug_aranges
                0x0000000000001480       0x38 ./codec/fsl_codec_common.o
 .debug_aranges
                0x00000000000014b8       0x88 ./codec/fsl_sgtl5000.o
 .debug_aranges
                0x0000000000001540       0x68 ./board/src/board.o
 .debug_aranges
                0x00000000000015a8       0x58 ./board/src/clock_config.o
 .debug_aranges
                0x0000000000001600       0x40 ./board/src/pin_mux.o
 .debug_aranges
                0x0000000000001640       0x30 ./CMSIS/system_MK22F51212.o

.debug_ranges   0x0000000000000000     0x14c8
 .debug_ranges  0x0000000000000000       0x20 ./utilities/fsl_debug_console.o
 .debug_ranges  0x0000000000000020       0x48 ./utilities/fsl_io.o
 .debug_ranges  0x0000000000000068       0x48 ./utilities/fsl_log.o
 .debug_ranges  0x00000000000000b0       0x90 ./usb/device/source/khci/usb_device_khci.o
 .debug_ranges  0x0000000000000140       0x68 ./usb/device/source/usb_device_ch9.o
 .debug_ranges  0x00000000000001a8       0xb8 ./usb/device/source/usb_device_dci.o
 .debug_ranges  0x0000000000000260       0xf8 ./usb/device/class/audio/usb_device_audio.o
 .debug_ranges  0x0000000000000358       0x58 ./usb/device/class/usb_device_class.o
 .debug_ranges  0x00000000000003b0      0x2c0 ./startup/startup_mk22f51212.o
 .debug_ranges  0x0000000000000670      0x158 ./sources/audio_speaker.o
 .debug_ranges  0x00000000000007c8       0x28 ./sources/usb_device_descriptor.o
 .debug_ranges  0x00000000000007f0       0x10 ./source/semihost_hardfault.o
 .debug_ranges  0x0000000000000800       0xd0 ./osa/usb_osa_bm.o
 .debug_ranges  0x00000000000008d0      0x1e8 ./drivers/fsl_clock.o
 .debug_ranges  0x0000000000000ab8       0x30 ./drivers/fsl_dmamux.o
 .debug_ranges  0x0000000000000ae8      0x200 ./drivers/fsl_edma.o
 .debug_ranges  0x0000000000000ce8       0x38 ./drivers/fsl_gpio.o
 .debug_ranges  0x0000000000000d20      0x168 ./drivers/fsl_i2c.o
 .debug_ranges  0x0000000000000e88      0x108 ./drivers/fsl_lpuart.o
 .debug_ranges  0x0000000000000f90      0x1d8 ./drivers/fsl_sai.o
 .debug_ranges  0x0000000000001168       0xa0 ./drivers/fsl_sai_edma.o
 .debug_ranges  0x0000000000001208      0x130 ./drivers/fsl_uart.o
 .debug_ranges  0x0000000000001338       0x28 ./codec/fsl_codec_common.o
 .debug_ranges  0x0000000000001360       0x78 ./codec/fsl_sgtl5000.o
 .debug_ranges  0x00000000000013d8       0x58 ./board/src/board.o
 .debug_ranges  0x0000000000001430       0x48 ./board/src/clock_config.o
 .debug_ranges  0x0000000000001478       0x30 ./board/src/pin_mux.o
 .debug_ranges  0x00000000000014a8       0x20 ./CMSIS/system_MK22F51212.o

.debug_line     0x0000000000000000     0x807c
 .debug_line    0x0000000000000000      0x180 ./utilities/fsl_debug_console.o
 .debug_line    0x0000000000000180      0x26f ./utilities/fsl_io.o
 .debug_line    0x00000000000003ef      0x21c ./utilities/fsl_log.o
 .debug_line    0x000000000000060b      0x5c9 ./usb/device/source/khci/usb_device_khci.o
 .debug_line    0x0000000000000bd4      0x459 ./usb/device/source/usb_device_ch9.o
 .debug_line    0x000000000000102d      0x49b ./usb/device/source/usb_device_dci.o
 .debug_line    0x00000000000014c8      0x814 ./usb/device/class/audio/usb_device_audio.o
 .debug_line    0x0000000000001cdc      0x3b4 ./usb/device/class/usb_device_class.o
 .debug_line    0x0000000000002090      0x5ff ./startup/startup_mk22f51212.o
 .debug_line    0x000000000000268f      0x83d ./sources/audio_speaker.o
 .debug_line    0x0000000000002ecc      0x254 ./sources/usb_device_descriptor.o
 .debug_line    0x0000000000003120       0x54 ./source/semihost_hardfault.o
 .debug_line    0x0000000000003174      0x4b0 ./osa/usb_osa_bm.o
 .debug_line    0x0000000000003624      0x96b ./drivers/fsl_clock.o
 .debug_line    0x0000000000003f8f      0x1ab ./drivers/fsl_dmamux.o
 .debug_line    0x000000000000413a      0xac6 ./drivers/fsl_edma.o
 .debug_line    0x0000000000004c00      0x1dc ./drivers/fsl_gpio.o
 .debug_line    0x0000000000004ddc      0x95a ./drivers/fsl_i2c.o
 .debug_line    0x0000000000005736      0x6b5 ./drivers/fsl_lpuart.o
 .debug_line    0x0000000000005deb      0x95a ./drivers/fsl_sai.o
 .debug_line    0x0000000000006745      0x406 ./drivers/fsl_sai_edma.o
 .debug_line    0x0000000000006b4b      0x84d ./drivers/fsl_uart.o
 .debug_line    0x0000000000007398      0x1a4 ./codec/fsl_codec_common.o
 .debug_line    0x000000000000753c      0x387 ./codec/fsl_sgtl5000.o
 .debug_line    0x00000000000078c3      0x248 ./board/src/board.o
 .debug_line    0x0000000000007b0b      0x220 ./board/src/clock_config.o
 .debug_line    0x0000000000007d2b      0x1b8 ./board/src/pin_mux.o
 .debug_line    0x0000000000007ee3      0x199 ./CMSIS/system_MK22F51212.o

.debug_str      0x0000000000000000     0xc013
 .debug_str     0x0000000000000000      0x394 ./utilities/fsl_debug_console.o
                                        0x3e5 (size before relaxing)
 .debug_str     0x0000000000000394      0xedb ./utilities/fsl_io.o
                                       0x1255 (size before relaxing)
 .debug_str     0x000000000000126f       0x85 ./utilities/fsl_log.o
                                        0x39b (size before relaxing)
 .debug_str     0x00000000000012f4     0x12ad ./usb/device/source/khci/usb_device_khci.o
                                       0x1b40 (size before relaxing)
 .debug_str     0x00000000000025a1     0x10d3 ./usb/device/source/usb_device_ch9.o
                                       0x1e1a (size before relaxing)
 .debug_str     0x0000000000003674      0x25d ./usb/device/source/usb_device_dci.o
                                       0x1a3a (size before relaxing)
 .debug_str     0x00000000000038d1      0x66c ./usb/device/class/audio/usb_device_audio.o
                                       0x17b4 (size before relaxing)
 .debug_str     0x0000000000003f3d      0x27f ./usb/device/class/usb_device_class.o
                                       0x16eb (size before relaxing)
 .debug_str     0x00000000000041bc      0x6e2 ./startup/startup_mk22f51212.o
                                        0x825 (size before relaxing)
 .debug_str     0x000000000000489e     0x27d7 ./sources/audio_speaker.o
                                       0x3f70 (size before relaxing)
 .debug_str     0x0000000000007075      0x5d1 ./sources/usb_device_descriptor.o
                                       0x159e (size before relaxing)
 .debug_str     0x0000000000007646       0x1f ./source/semihost_hardfault.o
                                        0x152 (size before relaxing)
 .debug_str     0x0000000000007665      0x40e ./osa/usb_osa_bm.o
                                        0xc71 (size before relaxing)
 .debug_str     0x0000000000007a73      0xb0b ./drivers/fsl_clock.o
                                       0x1ca9 (size before relaxing)
 .debug_str     0x000000000000857e       0x6e ./drivers/fsl_dmamux.o
                                        0xa35 (size before relaxing)
 .debug_str     0x00000000000085ec      0xcd3 ./drivers/fsl_edma.o
                                       0x1ffe (size before relaxing)
 .debug_str     0x00000000000092bf       0xa1 ./drivers/fsl_gpio.o
                                        0x93e (size before relaxing)
 .debug_str     0x0000000000009360      0xbbd ./drivers/fsl_i2c.o
                                       0x1c53 (size before relaxing)
 .debug_str     0x0000000000009f1d      0x853 ./drivers/fsl_lpuart.o
                                       0x1e24 (size before relaxing)
 .debug_str     0x000000000000a770      0x797 ./drivers/fsl_sai.o
                                       0x1dda (size before relaxing)
 .debug_str     0x000000000000af07      0x2a6 ./drivers/fsl_sai_edma.o
                                       0x1238 (size before relaxing)
 .debug_str     0x000000000000b1ad      0x51a ./drivers/fsl_uart.o
                                       0x1d3c (size before relaxing)
 .debug_str     0x000000000000b6c7      0x14d ./codec/fsl_codec_common.o
                                        0x500 (size before relaxing)
 .debug_str     0x000000000000b814      0x1e8 ./codec/fsl_sgtl5000.o
                                        0x784 (size before relaxing)
 .debug_str     0x000000000000b9fc      0x13e ./board/src/board.o
                                       0x12a9 (size before relaxing)
 .debug_str     0x000000000000bb3a      0x254 ./board/src/clock_config.o
                                        0xf77 (size before relaxing)
 .debug_str     0x000000000000bd8e      0x1ce ./board/src/pin_mux.o
                                        0x8cf (size before relaxing)
 .debug_str     0x000000000000bf5c       0xb7 ./CMSIS/system_MK22F51212.o
                                        0x3fd (size before relaxing)

.comment        0x0000000000000000       0x7e
 .comment       0x0000000000000000       0x7e ./utilities/fsl_debug_console.o
                                         0x7f (size before relaxing)
 .comment       0x000000000000007e       0x7f ./utilities/fsl_io.o
 .comment       0x000000000000007e       0x7f ./utilities/fsl_log.o
 .comment       0x000000000000007e       0x7f ./usb/device/source/khci/usb_device_khci.o
 .comment       0x000000000000007e       0x7f ./usb/device/source/usb_device_ch9.o
 .comment       0x000000000000007e       0x7f ./usb/device/source/usb_device_dci.o
 .comment       0x000000000000007e       0x7f ./usb/device/class/audio/usb_device_audio.o
 .comment       0x000000000000007e       0x7f ./usb/device/class/usb_device_class.o
 .comment       0x000000000000007e       0x7f ./startup/startup_mk22f51212.o
 .comment       0x000000000000007e       0x7f ./sources/audio_speaker.o
 .comment       0x000000000000007e       0x7f ./sources/usb_device_descriptor.o
 .comment       0x000000000000007e       0x7f ./source/semihost_hardfault.o
 .comment       0x000000000000007e       0x7f ./osa/usb_osa_bm.o
 .comment       0x000000000000007e       0x7f ./drivers/fsl_clock.o
 .comment       0x000000000000007e       0x7f ./drivers/fsl_dmamux.o
 .comment       0x000000000000007e       0x7f ./drivers/fsl_edma.o
 .comment       0x000000000000007e       0x7f ./drivers/fsl_gpio.o
 .comment       0x000000000000007e       0x7f ./drivers/fsl_i2c.o
 .comment       0x000000000000007e       0x7f ./drivers/fsl_lpuart.o
 .comment       0x000000000000007e       0x7f ./drivers/fsl_sai.o
 .comment       0x000000000000007e       0x7f ./drivers/fsl_sai_edma.o
 .comment       0x000000000000007e       0x7f ./drivers/fsl_uart.o
 .comment       0x000000000000007e       0x7f ./codec/fsl_codec_common.o
 .comment       0x000000000000007e       0x7f ./codec/fsl_sgtl5000.o
 .comment       0x000000000000007e       0x7f ./board/src/board.o
 .comment       0x000000000000007e       0x7f ./board/src/clock_config.o
 .comment       0x000000000000007e       0x7f ./board/src/pin_mux.o
 .comment       0x000000000000007e       0x7f ./CMSIS/system_MK22F51212.o
 .comment       0x000000000000007e       0x7f /usr/local/mcuxpressoide-10.2.1_795/ide/tools/bin/../lib/gcc/arm-none-eabi/7.2.1/../../../../arm-none-eabi/lib/thumb/v7e-m/fpv4-sp/hard/libcr_semihost_nf.a(_cr__main.o)
 .comment       0x000000000000007e       0x7f /usr/local/mcuxpressoide-10.2.1_795/ide/tools/bin/../lib/gcc/arm-none-eabi/7.2.1/../../../../arm-none-eabi/lib/thumb/v7e-m/fpv4-sp/hard/libcr_semihost_nf.a(_cr_assert.o)
 .comment       0x000000000000007e       0x7f /usr/local/mcuxpressoide-10.2.1_795/ide/tools/bin/../lib/gcc/arm-none-eabi/7.2.1/../../../../arm-none-eabi/lib/thumb/v7e-m/fpv4-sp/hard/libcr_semihost_nf.a(__ciob.o)
 .comment       0x000000000000007e       0x7f /usr/local/mcuxpressoide-10.2.1_795/ide/tools/bin/../lib/gcc/arm-none-eabi/7.2.1/../../../../arm-none-eabi/lib/thumb/v7e-m/fpv4-sp/hard/libcr_c.a(memcpy.o)
 .comment       0x000000000000007e       0x7f /usr/local/mcuxpressoide-10.2.1_795/ide/tools/bin/../lib/gcc/arm-none-eabi/7.2.1/../../../../arm-none-eabi/lib/thumb/v7e-m/fpv4-sp/hard/libcr_c.a(memset.o)
 .comment       0x000000000000007e       0x7f /usr/local/mcuxpressoide-10.2.1_795/ide/tools/bin/../lib/gcc/arm-none-eabi/7.2.1/../../../../arm-none-eabi/lib/thumb/v7e-m/fpv4-sp/hard/libcr_c.a(_deferredlazyseek.o)
 .comment       0x000000000000007e       0x7f /usr/local/mcuxpressoide-10.2.1_795/ide/tools/bin/../lib/gcc/arm-none-eabi/7.2.1/../../../../arm-none-eabi/lib/thumb/v7e-m/fpv4-sp/hard/libcr_c.a(_fflush.o)
 .comment       0x000000000000007e       0x7f /usr/local/mcuxpressoide-10.2.1_795/ide/tools/bin/../lib/gcc/arm-none-eabi/7.2.1/../../../../arm-none-eabi/lib/thumb/v7e-m/fpv4-sp/hard/libcr_c.a(_writebuf.o)
 .comment       0x000000000000007e       0x7f /usr/local/mcuxpressoide-10.2.1_795/ide/tools/bin/../lib/gcc/arm-none-eabi/7.2.1/../../../../arm-none-eabi/lib/thumb/v7e-m/fpv4-sp/hard/libcr_c.a(alloc.o)
 .comment       0x000000000000007e       0x7f /usr/local/mcuxpressoide-10.2.1_795/ide/tools/bin/../lib/gcc/arm-none-eabi/7.2.1/../../../../arm-none-eabi/lib/thumb/v7e-m/fpv4-sp/hard/libcr_c.a(fputs.o)
 .comment       0x000000000000007e       0x7f /usr/local/mcuxpressoide-10.2.1_795/ide/tools/bin/../lib/gcc/arm-none-eabi/7.2.1/../../../../arm-none-eabi/lib/thumb/v7e-m/fpv4-sp/hard/libcr_c.a(fseek.o)
 .comment       0x000000000000007e       0x7f /usr/local/mcuxpressoide-10.2.1_795/ide/tools/bin/../lib/gcc/arm-none-eabi/7.2.1/../../../../arm-none-eabi/lib/thumb/v7e-m/fpv4-sp/hard/libcr_c.a(ftell.o)
 .comment       0x000000000000007e       0x7f /usr/local/mcuxpressoide-10.2.1_795/ide/tools/bin/../lib/gcc/arm-none-eabi/7.2.1/../../../../arm-none-eabi/lib/thumb/v7e-m/fpv4-sp/hard/libcr_c.a(initio.o)
 .comment       0x000000000000007e       0x7f /usr/local/mcuxpressoide-10.2.1_795/ide/tools/bin/../lib/gcc/arm-none-eabi/7.2.1/../../../../arm-none-eabi/lib/thumb/v7e-m/fpv4-sp/hard/libcr_c.a(printf.o)
 .comment       0x000000000000007e       0x7f /usr/local/mcuxpressoide-10.2.1_795/ide/tools/bin/../lib/gcc/arm-none-eabi/7.2.1/../../../../arm-none-eabi/lib/thumb/v7e-m/fpv4-sp/hard/libcr_c.a(setvbuf.o)
 .comment       0x000000000000007e       0x7f /usr/local/mcuxpressoide-10.2.1_795/ide/tools/bin/../lib/gcc/arm-none-eabi/7.2.1/../../../../arm-none-eabi/lib/thumb/v7e-m/fpv4-sp/hard/libcr_c.a(strlen.o)
 .comment       0x000000000000007e       0x7f /usr/local/mcuxpressoide-10.2.1_795/ide/tools/bin/../lib/gcc/arm-none-eabi/7.2.1/../../../../arm-none-eabi/lib/thumb/v7e-m/fpv4-sp/hard/libcr_c.a(__init_alloc.o)
 .comment       0x000000000000007e       0x7f /usr/local/mcuxpressoide-10.2.1_795/ide/tools/bin/../lib/gcc/arm-none-eabi/7.2.1/../../../../arm-none-eabi/lib/thumb/v7e-m/fpv4-sp/hard/libcr_c.a(_cr_sbrk.o)
 .comment       0x000000000000007e       0x7f /usr/local/mcuxpressoide-10.2.1_795/ide/tools/bin/../lib/gcc/arm-none-eabi/7.2.1/../../../../arm-none-eabi/lib/thumb/v7e-m/fpv4-sp/hard/libcr_c.a(_fdopen.o)
 .comment       0x000000000000007e       0x7f /usr/local/mcuxpressoide-10.2.1_795/ide/tools/bin/../lib/gcc/arm-none-eabi/7.2.1/../../../../arm-none-eabi/lib/thumb/v7e-m/fpv4-sp/hard/libcr_c.a(errno.o)
 .comment       0x000000000000007e       0x7f /usr/local/mcuxpressoide-10.2.1_795/ide/tools/bin/../lib/gcc/arm-none-eabi/7.2.1/../../../../arm-none-eabi/lib/thumb/v7e-m/fpv4-sp/hard/libcr_c.a(fclose.o)
 .comment       0x000000000000007e       0x7f /usr/local/mcuxpressoide-10.2.1_795/ide/tools/bin/../lib/gcc/arm-none-eabi/7.2.1/../../../../arm-none-eabi/lib/thumb/v7e-m/fpv4-sp/hard/libcr_c.a(fflush.o)
 .comment       0x000000000000007e       0x7f /usr/local/mcuxpressoide-10.2.1_795/ide/tools/bin/../lib/gcc/arm-none-eabi/7.2.1/../../../../arm-none-eabi/lib/thumb/v7e-m/fpv4-sp/hard/libcr_c.a(remove.o)
 .comment       0x000000000000007e       0x7f /usr/local/mcuxpressoide-10.2.1_795/ide/tools/bin/../lib/gcc/arm-none-eabi/7.2.1/../../../../arm-none-eabi/lib/thumb/v7e-m/fpv4-sp/hard/libcr_c.a(_cr_check_heap.o)
 .comment       0x000000000000007e       0x7f /usr/local/mcuxpressoide-10.2.1_795/ide/tools/bin/../lib/gcc/arm-none-eabi/7.2.1/../../../../arm-none-eabi/lib/thumb/v7e-m/fpv4-sp/hard/libcr_c.a(_do_fflush.o)

.ARM.attributes
                0x0000000000000000       0x37
 .ARM.attributes
                0x0000000000000000       0x39 ./utilities/fsl_debug_console.o
 .ARM.attributes
                0x0000000000000039       0x39 ./utilities/fsl_io.o
 .ARM.attributes
                0x0000000000000072       0x39 ./utilities/fsl_log.o
 .ARM.attributes
                0x00000000000000ab       0x39 ./usb/device/source/khci/usb_device_khci.o
 .ARM.attributes
                0x00000000000000e4       0x39 ./usb/device/source/usb_device_ch9.o
 .ARM.attributes
                0x000000000000011d       0x39 ./usb/device/source/usb_device_dci.o
 .ARM.attributes
                0x0000000000000156       0x39 ./usb/device/class/audio/usb_device_audio.o
 .ARM.attributes
                0x000000000000018f       0x39 ./usb/device/class/usb_device_class.o
 .ARM.attributes
                0x00000000000001c8       0x39 ./startup/startup_mk22f51212.o
 .ARM.attributes
                0x0000000000000201       0x39 ./sources/audio_speaker.o
 .ARM.attributes
                0x000000000000023a       0x39 ./sources/usb_device_descriptor.o
 .ARM.attributes
                0x0000000000000273       0x39 ./source/semihost_hardfault.o
 .ARM.attributes
                0x00000000000002ac       0x39 ./osa/usb_osa_bm.o
 .ARM.attributes
                0x00000000000002e5       0x39 ./drivers/fsl_clock.o
 .ARM.attributes
                0x000000000000031e       0x39 ./drivers/fsl_dmamux.o
 .ARM.attributes
                0x0000000000000357       0x39 ./drivers/fsl_edma.o
 .ARM.attributes
                0x0000000000000390       0x39 ./drivers/fsl_gpio.o
 .ARM.attributes
                0x00000000000003c9       0x39 ./drivers/fsl_i2c.o
 .ARM.attributes
                0x0000000000000402       0x39 ./drivers/fsl_lpuart.o
 .ARM.attributes
                0x000000000000043b       0x39 ./drivers/fsl_sai.o
 .ARM.attributes
                0x0000000000000474       0x39 ./drivers/fsl_sai_edma.o
 .ARM.attributes
                0x00000000000004ad       0x39 ./drivers/fsl_uart.o
 .ARM.attributes
                0x00000000000004e6       0x39 ./codec/fsl_codec_common.o
 .ARM.attributes
                0x000000000000051f       0x39 ./codec/fsl_sgtl5000.o
 .ARM.attributes
                0x0000000000000558       0x39 ./board/src/board.o
 .ARM.attributes
                0x0000000000000591       0x39 ./board/src/clock_config.o
 .ARM.attributes
                0x00000000000005ca       0x39 ./board/src/pin_mux.o
 .ARM.attributes
                0x0000000000000603       0x39 ./CMSIS/system_MK22F51212.o
 .ARM.attributes
                0x000000000000063c       0x39 /usr/local/mcuxpressoide-10.2.1_795/ide/tools/bin/../lib/gcc/arm-none-eabi/7.2.1/../../../../arm-none-eabi/lib/thumb/v7e-m/fpv4-sp/hard/libcr_semihost_nf.a(_cr__main.o)
 .ARM.attributes
                0x0000000000000675       0x39 /usr/local/mcuxpressoide-10.2.1_795/ide/tools/bin/../lib/gcc/arm-none-eabi/7.2.1/../../../../arm-none-eabi/lib/thumb/v7e-m/fpv4-sp/hard/libcr_semihost_nf.a(_cr_assert.o)
 .ARM.attributes
                0x00000000000006ae       0x39 /usr/local/mcuxpressoide-10.2.1_795/ide/tools/bin/../lib/gcc/arm-none-eabi/7.2.1/../../../../arm-none-eabi/lib/thumb/v7e-m/fpv4-sp/hard/libcr_semihost_nf.a(__ciob.o)
 .ARM.attributes
                0x00000000000006e7       0x25 /usr/local/mcuxpressoide-10.2.1_795/ide/tools/bin/../lib/gcc/arm-none-eabi/7.2.1/../../../../arm-none-eabi/lib/thumb/v7e-m/fpv4-sp/hard/libcr_semihost_nf.a(__sys_appexit.o)
 .ARM.attributes
                0x000000000000070c       0x39 /usr/local/mcuxpressoide-10.2.1_795/ide/tools/bin/../lib/gcc/arm-none-eabi/7.2.1/../../../../arm-none-eabi/lib/thumb/v7e-m/fpv4-sp/hard/libcr_c.a(memcpy.o)
 .ARM.attributes
                0x0000000000000745       0x39 /usr/local/mcuxpressoide-10.2.1_795/ide/tools/bin/../lib/gcc/arm-none-eabi/7.2.1/../../../../arm-none-eabi/lib/thumb/v7e-m/fpv4-sp/hard/libcr_c.a(memset.o)
 .ARM.attributes
                0x000000000000077e       0x39 /usr/local/mcuxpressoide-10.2.1_795/ide/tools/bin/../lib/gcc/arm-none-eabi/7.2.1/../../../../arm-none-eabi/lib/thumb/v7e-m/fpv4-sp/hard/libcr_c.a(_deferredlazyseek.o)
 .ARM.attributes
                0x00000000000007b7       0x39 /usr/local/mcuxpressoide-10.2.1_795/ide/tools/bin/../lib/gcc/arm-none-eabi/7.2.1/../../../../arm-none-eabi/lib/thumb/v7e-m/fpv4-sp/hard/libcr_c.a(_fflush.o)
 .ARM.attributes
                0x00000000000007f0       0x39 /usr/local/mcuxpressoide-10.2.1_795/ide/tools/bin/../lib/gcc/arm-none-eabi/7.2.1/../../../../arm-none-eabi/lib/thumb/v7e-m/fpv4-sp/hard/libcr_c.a(_writebuf.o)
 .ARM.attributes
                0x0000000000000829       0x39 /usr/local/mcuxpressoide-10.2.1_795/ide/tools/bin/../lib/gcc/arm-none-eabi/7.2.1/../../../../arm-none-eabi/lib/thumb/v7e-m/fpv4-sp/hard/libcr_c.a(alloc.o)
 .ARM.attributes
                0x0000000000000862       0x39 /usr/local/mcuxpressoide-10.2.1_795/ide/tools/bin/../lib/gcc/arm-none-eabi/7.2.1/../../../../arm-none-eabi/lib/thumb/v7e-m/fpv4-sp/hard/libcr_c.a(fputs.o)
 .ARM.attributes
                0x000000000000089b       0x39 /usr/local/mcuxpressoide-10.2.1_795/ide/tools/bin/../lib/gcc/arm-none-eabi/7.2.1/../../../../arm-none-eabi/lib/thumb/v7e-m/fpv4-sp/hard/libcr_c.a(fseek.o)
 .ARM.attributes
                0x00000000000008d4       0x39 /usr/local/mcuxpressoide-10.2.1_795/ide/tools/bin/../lib/gcc/arm-none-eabi/7.2.1/../../../../arm-none-eabi/lib/thumb/v7e-m/fpv4-sp/hard/libcr_c.a(ftell.o)
 .ARM.attributes
                0x000000000000090d       0x39 /usr/local/mcuxpressoide-10.2.1_795/ide/tools/bin/../lib/gcc/arm-none-eabi/7.2.1/../../../../arm-none-eabi/lib/thumb/v7e-m/fpv4-sp/hard/libcr_c.a(initio.o)
 .ARM.attributes
                0x0000000000000946       0x39 /usr/local/mcuxpressoide-10.2.1_795/ide/tools/bin/../lib/gcc/arm-none-eabi/7.2.1/../../../../arm-none-eabi/lib/thumb/v7e-m/fpv4-sp/hard/libcr_c.a(printf.o)
 .ARM.attributes
                0x000000000000097f       0x39 /usr/local/mcuxpressoide-10.2.1_795/ide/tools/bin/../lib/gcc/arm-none-eabi/7.2.1/../../../../arm-none-eabi/lib/thumb/v7e-m/fpv4-sp/hard/libcr_c.a(setvbuf.o)
 .ARM.attributes
                0x00000000000009b8       0x39 /usr/local/mcuxpressoide-10.2.1_795/ide/tools/bin/../lib/gcc/arm-none-eabi/7.2.1/../../../../arm-none-eabi/lib/thumb/v7e-m/fpv4-sp/hard/libcr_c.a(strlen.o)
 .ARM.attributes
                0x00000000000009f1       0x39 /usr/local/mcuxpressoide-10.2.1_795/ide/tools/bin/../lib/gcc/arm-none-eabi/7.2.1/../../../../arm-none-eabi/lib/thumb/v7e-m/fpv4-sp/hard/libcr_c.a(__init_alloc.o)
 .ARM.attributes
                0x0000000000000a2a       0x39 /usr/local/mcuxpressoide-10.2.1_795/ide/tools/bin/../lib/gcc/arm-none-eabi/7.2.1/../../../../arm-none-eabi/lib/thumb/v7e-m/fpv4-sp/hard/libcr_c.a(_cr_sbrk.o)
 .ARM.attributes
                0x0000000000000a63       0x39 /usr/local/mcuxpressoide-10.2.1_795/ide/tools/bin/../lib/gcc/arm-none-eabi/7.2.1/../../../../arm-none-eabi/lib/thumb/v7e-m/fpv4-sp/hard/libcr_c.a(_fdopen.o)
 .ARM.attributes
                0x0000000000000a9c       0x39 /usr/local/mcuxpressoide-10.2.1_795/ide/tools/bin/../lib/gcc/arm-none-eabi/7.2.1/../../../../arm-none-eabi/lib/thumb/v7e-m/fpv4-sp/hard/libcr_c.a(errno.o)
 .ARM.attributes
                0x0000000000000ad5       0x39 /usr/local/mcuxpressoide-10.2.1_795/ide/tools/bin/../lib/gcc/arm-none-eabi/7.2.1/../../../../arm-none-eabi/lib/thumb/v7e-m/fpv4-sp/hard/libcr_c.a(fclose.o)
 .ARM.attributes
                0x0000000000000b0e       0x39 /usr/local/mcuxpressoide-10.2.1_795/ide/tools/bin/../lib/gcc/arm-none-eabi/7.2.1/../../../../arm-none-eabi/lib/thumb/v7e-m/fpv4-sp/hard/libcr_c.a(fflush.o)
 .ARM.attributes
                0x0000000000000b47       0x39 /usr/local/mcuxpressoide-10.2.1_795/ide/tools/bin/../lib/gcc/arm-none-eabi/7.2.1/../../../../arm-none-eabi/lib/thumb/v7e-m/fpv4-sp/hard/libcr_c.a(remove.o)
 .ARM.attributes
                0x0000000000000b80       0x39 /usr/local/mcuxpressoide-10.2.1_795/ide/tools/bin/../lib/gcc/arm-none-eabi/7.2.1/../../../../arm-none-eabi/lib/thumb/v7e-m/fpv4-sp/hard/libcr_c.a(_cr_check_heap.o)
 .ARM.attributes
                0x0000000000000bb9       0x39 /usr/local/mcuxpressoide-10.2.1_795/ide/tools/bin/../lib/gcc/arm-none-eabi/7.2.1/../../../../arm-none-eabi/lib/thumb/v7e-m/fpv4-sp/hard/libcr_c.a(_do_fflush.o)
 .ARM.attributes
                0x0000000000000bf2       0x25 /usr/local/mcuxpressoide-10.2.1_795/ide/tools/bin/../lib/gcc/arm-none-eabi/7.2.1/thumb/v7e-m/fpv4-sp/hard/libcr_eabihelpers.a(memcpy.o)
 .ARM.attributes
                0x0000000000000c17       0x25 /usr/local/mcuxpressoide-10.2.1_795/ide/tools/bin/../lib/gcc/arm-none-eabi/7.2.1/../../../../arm-none-eabi/lib/thumb/v7e-m/fpv4-sp/hard/libcr_semihost_nf.a(__sys_close.o)
 .ARM.attributes
                0x0000000000000c3c       0x25 /usr/local/mcuxpressoide-10.2.1_795/ide/tools/bin/../lib/gcc/arm-none-eabi/7.2.1/../../../../arm-none-eabi/lib/thumb/v7e-m/fpv4-sp/hard/libcr_semihost_nf.a(__sys_flen.o)
 .ARM.attributes
                0x0000000000000c61       0x25 /usr/local/mcuxpressoide-10.2.1_795/ide/tools/bin/../lib/gcc/arm-none-eabi/7.2.1/../../../../arm-none-eabi/lib/thumb/v7e-m/fpv4-sp/hard/libcr_semihost_nf.a(__sys_istty.o)
 .ARM.attributes
                0x0000000000000c86       0x25 /usr/local/mcuxpressoide-10.2.1_795/ide/tools/bin/../lib/gcc/arm-none-eabi/7.2.1/../../../../arm-none-eabi/lib/thumb/v7e-m/fpv4-sp/hard/libcr_semihost_nf.a(__sys_remove.o)
 .ARM.attributes
                0x0000000000000cab       0x25 /usr/local/mcuxpressoide-10.2.1_795/ide/tools/bin/../lib/gcc/arm-none-eabi/7.2.1/../../../../arm-none-eabi/lib/thumb/v7e-m/fpv4-sp/hard/libcr_semihost_nf.a(__sys_seek.o)
 .ARM.attributes
                0x0000000000000cd0       0x25 /usr/local/mcuxpressoide-10.2.1_795/ide/tools/bin/../lib/gcc/arm-none-eabi/7.2.1/../../../../arm-none-eabi/lib/thumb/v7e-m/fpv4-sp/hard/libcr_semihost_nf.a(__sys_tmpnam.o)
 .ARM.attributes
                0x0000000000000cf5       0x25 /usr/local/mcuxpressoide-10.2.1_795/ide/tools/bin/../lib/gcc/arm-none-eabi/7.2.1/../../../../arm-none-eabi/lib/thumb/v7e-m/fpv4-sp/hard/libcr_semihost_nf.a(__sys_write.o)

.debug_frame    0x0000000000000000     0x56bc
 .debug_frame   0x0000000000000000       0x6c ./utilities/fsl_debug_console.o
 .debug_frame   0x000000000000006c      0x130 ./utilities/fsl_io.o
 .debug_frame   0x000000000000019c      0x120 ./utilities/fsl_log.o
 .debug_frame   0x00000000000002bc      0x28c ./usb/device/source/khci/usb_device_khci.o
 .debug_frame   0x0000000000000548      0x1c8 ./usb/device/source/usb_device_ch9.o
 .debug_frame   0x0000000000000710      0x338 ./usb/device/source/usb_device_dci.o
 .debug_frame   0x0000000000000a48      0x454 ./usb/device/class/audio/usb_device_audio.o
 .debug_frame   0x0000000000000e9c      0x180 ./usb/device/class/usb_device_class.o
 .debug_frame   0x000000000000101c      0x7e4 ./startup/startup_mk22f51212.o
 .debug_frame   0x0000000000001800      0x568 ./sources/audio_speaker.o
 .debug_frame   0x0000000000001d68       0xb0 ./sources/usb_device_descriptor.o
 .debug_frame   0x0000000000001e18       0x20 ./source/semihost_hardfault.o
 .debug_frame   0x0000000000001e38      0x3ac ./osa/usb_osa_bm.o
 .debug_frame   0x00000000000021e4      0x858 ./drivers/fsl_clock.o
 .debug_frame   0x0000000000002a3c       0xcc ./drivers/fsl_dmamux.o
 .debug_frame   0x0000000000002b08      0x848 ./drivers/fsl_edma.o
 .debug_frame   0x0000000000003350       0xec ./drivers/fsl_gpio.o
 .debug_frame   0x000000000000343c      0x678 ./drivers/fsl_i2c.o
 .debug_frame   0x0000000000003ab4      0x4b4 ./drivers/fsl_lpuart.o
 .debug_frame   0x0000000000003f68      0x8a8 ./drivers/fsl_sai.o
 .debug_frame   0x0000000000004810      0x2ec ./drivers/fsl_sai_edma.o
 .debug_frame   0x0000000000004afc      0x544 ./drivers/fsl_uart.o
 .debug_frame   0x0000000000005040       0xac ./codec/fsl_codec_common.o
 .debug_frame   0x00000000000050ec      0x20c ./codec/fsl_sgtl5000.o
 .debug_frame   0x00000000000052f8      0x168 ./board/src/board.o
 .debug_frame   0x0000000000005460      0x124 ./board/src/clock_config.o
 .debug_frame   0x0000000000005584       0xc4 ./board/src/pin_mux.o
 .debug_frame   0x0000000000005648       0x74 ./CMSIS/system_MK22F51212.o
